; Listing generated by Microsoft (R) Optimizing Compiler Version 18.00.40629.0 

	TITLE	C:\Users\chenj\OneDrive\Documents\Visual Studio 2013\Projects\Team_06_CS3843_Project\Team_06_CS3843_Project\SHA-256.cpp
	.686P
	.XMM
	include listing.inc
	.model	flat

INCLUDELIB LIBCMTD
INCLUDELIB OLDNAMES

PUBLIC	??_C@_03FIKCJHKP@abc?$AA@			; `string'
PUBLIC	??_C@_0DJ@NGDOEGCI@abcdbcdecdefdefgefghfghighijhijk@ ; `string'
PUBLIC	??_C@_0EB@OKGBMHDA@ba7816bf8f01cfea414140de5dae2223@ ; `string'
PUBLIC	??_C@_0EB@BFFMJNNE@248d6a61d20638b8e5c026930c3e6039@ ; `string'
PUBLIC	??_C@_0EB@OPOECNEJ@cdc76e5c9914fb9281a1c7e284d73e67@ ; `string'
;	COMDAT ??_C@_0EB@OPOECNEJ@cdc76e5c9914fb9281a1c7e284d73e67@
CONST	SEGMENT
??_C@_0EB@OPOECNEJ@cdc76e5c9914fb9281a1c7e284d73e67@ DB 'cdc76e5c9914fb92'
	DB	'81a1c7e284d73e67f1809a48a497200e046d39ccc7112cd0', 00H ; `string'
CONST	ENDS
;	COMDAT ??_C@_0EB@BFFMJNNE@248d6a61d20638b8e5c026930c3e6039@
CONST	SEGMENT
??_C@_0EB@BFFMJNNE@248d6a61d20638b8e5c026930c3e6039@ DB '248d6a61d20638b8'
	DB	'e5c026930c3e6039a33ce45964ff2167f6ecedd419db06c1', 00H ; `string'
CONST	ENDS
;	COMDAT ??_C@_0EB@OKGBMHDA@ba7816bf8f01cfea414140de5dae2223@
CONST	SEGMENT
??_C@_0EB@OKGBMHDA@ba7816bf8f01cfea414140de5dae2223@ DB 'ba7816bf8f01cfea'
	DB	'414140de5dae2223b00361a396177a9cb410ff61f20015ad', 00H ; `string'
CONST	ENDS
;	COMDAT ??_C@_0DJ@NGDOEGCI@abcdbcdecdefdefgefghfghighijhijk@
CONST	SEGMENT
??_C@_0DJ@NGDOEGCI@abcdbcdecdefdefgefghfghighijhijk@ DB 'abcdbcdecdefdefg'
	DB	'efghfghighijhijkijkljklmklmnlmnomnopnopq', 00H ; `string'
CONST	ENDS
;	COMDAT ??_C@_03FIKCJHKP@abc?$AA@
CONST	SEGMENT
??_C@_03FIKCJHKP@abc?$AA@ DB 'abc', 00H			; `string'
CONST	ENDS
_DATA	SEGMENT
_sha256_padding DB 080H
	DB	00H
	DB	00H
	DB	00H
	DB	00H
	DB	00H
	DB	00H
	DB	00H
	DB	00H
	DB	00H
	DB	00H
	DB	00H
	DB	00H
	DB	00H
	DB	00H
	DB	00H
	DB	00H
	DB	00H
	DB	00H
	DB	00H
	DB	00H
	DB	00H
	DB	00H
	DB	00H
	DB	00H
	DB	00H
	DB	00H
	DB	00H
	DB	00H
	DB	00H
	DB	00H
	DB	00H
	DB	00H
	DB	00H
	DB	00H
	DB	00H
	DB	00H
	DB	00H
	DB	00H
	DB	00H
	DB	00H
	DB	00H
	DB	00H
	DB	00H
	DB	00H
	DB	00H
	DB	00H
	DB	00H
	DB	00H
	DB	00H
	DB	00H
	DB	00H
	DB	00H
	DB	00H
	DB	00H
	DB	00H
	DB	00H
	DB	00H
	DB	00H
	DB	00H
	DB	00H
	DB	00H
	DB	00H
	DB	00H
_msg	DD	FLAT:??_C@_03FIKCJHKP@abc?$AA@
	DD	FLAT:??_C@_0DJ@NGDOEGCI@abcdbcdecdefdefgefghfghighijhijk@
	DD	00H
_val	DD	FLAT:??_C@_0EB@OKGBMHDA@ba7816bf8f01cfea414140de5dae2223@
	DD	FLAT:??_C@_0EB@BFFMJNNE@248d6a61d20638b8e5c026930c3e6039@
	DD	FLAT:??_C@_0EB@OPOECNEJ@cdc76e5c9914fb9281a1c7e284d73e67@
_DATA	ENDS
PUBLIC	?sha256_starts@@YAXPAUsha256_context@@@Z	; sha256_starts
PUBLIC	?sha256_update@@YAXPAUsha256_context@@PAEK@Z	; sha256_update
PUBLIC	?sha256_finish@@YAXPAUsha256_context@@QAE@Z	; sha256_finish
PUBLIC	?sha256_process@@YAXPAUsha256_context@@QAE@Z	; sha256_process
PUBLIC	?sha256@@YAHPAD0KQAE@Z				; sha256
PUBLIC	??_C@_02JDPG@rb?$AA@				; `string'
EXTRN	_memcpy:PROC
EXTRN	_memset:PROC
EXTRN	_fclose:PROC
EXTRN	_fopen:PROC
EXTRN	_fread:PROC
EXTRN	@_RTC_CheckStackVars@8:PROC
EXTRN	@__security_check_cookie@4:PROC
EXTRN	__RTC_CheckEsp:PROC
EXTRN	__RTC_InitBase:PROC
EXTRN	__RTC_Shutdown:PROC
EXTRN	__chkstk:PROC
EXTRN	___security_cookie:DWORD
;	COMDAT rtc$TMZ
rtc$TMZ	SEGMENT
__RTC_Shutdown.rtc$TMZ DD FLAT:__RTC_Shutdown
rtc$TMZ	ENDS
;	COMDAT rtc$IMZ
rtc$IMZ	SEGMENT
__RTC_InitBase.rtc$IMZ DD FLAT:__RTC_InitBase
rtc$IMZ	ENDS
;	COMDAT ??_C@_02JDPG@rb?$AA@
CONST	SEGMENT
??_C@_02JDPG@rb?$AA@ DB 'rb', 00H			; `string'
CONST	ENDS
; Function compile flags: /Odtp /RTCsu /ZI
; File c:\users\chenj\onedrive\documents\visual studio 2013\projects\team_06_cs3843_project\team_06_cs3843_project\sha-256.cpp
;	COMDAT ?sha256@@YAHPAD0KQAE@Z
_TEXT	SEGMENT
_totalByteCount$ = -4268				; size = 8
_dataBufferIndex$ = -4252				; size = 4
_numBytesRead$ = -4240					; size = 4
_buffer$ = -4228					; size = 4096
_ctx$ = -124						; size = 104
_fptrIn$ = -12						; size = 4
__$ArrayPad$ = -4					; size = 4
_fileName$ = 8						; size = 4
_dataBuffer$ = 12					; size = 4
_dataLength$ = 16					; size = 4
_sha256sum$ = 20					; size = 4
?sha256@@YAHPAD0KQAE@Z PROC				; sha256, COMDAT

; 293  : {

  00000	55		 push	 ebp
  00001	8b ec		 mov	 ebp, esp
  00003	b8 70 11 00 00	 mov	 eax, 4464		; 00001170H
  00008	e8 00 00 00 00	 call	 __chkstk
  0000d	53		 push	 ebx
  0000e	56		 push	 esi
  0000f	57		 push	 edi
  00010	8d bd 90 ee ff
	ff		 lea	 edi, DWORD PTR [ebp-4464]
  00016	b9 5c 04 00 00	 mov	 ecx, 1116		; 0000045cH
  0001b	b8 cc cc cc cc	 mov	 eax, -858993460		; ccccccccH
  00020	f3 ab		 rep stosd
  00022	a1 00 00 00 00	 mov	 eax, DWORD PTR ___security_cookie
  00027	33 c5		 xor	 eax, ebp
  00029	89 45 fc	 mov	 DWORD PTR __$ArrayPad$[ebp], eax

; 294  : 	FILE *fptrIn = NULL;

  0002c	c7 45 f4 00 00
	00 00		 mov	 DWORD PTR _fptrIn$[ebp], 0

; 295  : 	sha256_context ctx;
; 296  : 	unsigned char buffer[4096];
; 297  : 	DWORD numBytesRead, dataBufferIndex;
; 298  : 	QWORD totalByteCount;
; 299  : 
; 300  : 
; 301  : 	if(fileName != NULL)

  00033	83 7d 08 00	 cmp	 DWORD PTR _fileName$[ebp], 0
  00037	74 14		 je	 SHORT $LN9@sha256

; 302  : 	{
; 303  : 		fptrIn = fopen(fileName, "rb");

  00039	68 00 00 00 00	 push	 OFFSET ??_C@_02JDPG@rb?$AA@
  0003e	8b 45 08	 mov	 eax, DWORD PTR _fileName$[ebp]
  00041	50		 push	 eax
  00042	e8 00 00 00 00	 call	 _fopen
  00047	83 c4 08	 add	 esp, 8
  0004a	89 45 f4	 mov	 DWORD PTR _fptrIn$[ebp], eax
$LN9@sha256:

; 304  : 	}
; 305  : 
; 306  : 	totalByteCount = 0;

  0004d	66 0f 57 c0	 xorpd	 xmm0, xmm0
  00051	66 0f 13 85 54
	ef ff ff	 movlpd	 QWORD PTR _totalByteCount$[ebp], xmm0

; 307  : 	dataBufferIndex = 0;

  00059	c7 85 64 ef ff
	ff 00 00 00 00	 mov	 DWORD PTR _dataBufferIndex$[ebp], 0

; 308  : 
; 309  : 	memset(sha256sum, 0, 32);

  00063	6a 20		 push	 32			; 00000020H
  00065	6a 00		 push	 0
  00067	8b 45 14	 mov	 eax, DWORD PTR _sha256sum$[ebp]
  0006a	50		 push	 eax
  0006b	e8 00 00 00 00	 call	 _memset
  00070	83 c4 0c	 add	 esp, 12			; 0000000cH

; 310  : 	sha256_starts( &ctx );

  00073	8d 45 84	 lea	 eax, DWORD PTR _ctx$[ebp]
  00076	50		 push	 eax
  00077	e8 00 00 00 00	 call	 ?sha256_starts@@YAXPAUsha256_context@@@Z ; sha256_starts
  0007c	83 c4 04	 add	 esp, 4
$LN8@sha256:

; 311  : 
; 312  : 	while(1)

  0007f	b8 01 00 00 00	 mov	 eax, 1
  00084	85 c0		 test	 eax, eax
  00086	0f 84 dc 00 00
	00		 je	 $LN7@sha256

; 313  : 	{
; 314  : 		if(fptrIn != NULL)

  0008c	83 7d f4 00	 cmp	 DWORD PTR _fptrIn$[ebp], 0
  00090	74 30		 je	 SHORT $LN6@sha256

; 315  : 		{
; 316  : 			numBytesRead = fread( buffer, 1, sizeof( buffer ), fptrIn );

  00092	8b 45 f4	 mov	 eax, DWORD PTR _fptrIn$[ebp]
  00095	50		 push	 eax
  00096	68 00 10 00 00	 push	 4096			; 00001000H
  0009b	6a 01		 push	 1
  0009d	8d 8d 7c ef ff
	ff		 lea	 ecx, DWORD PTR _buffer$[ebp]
  000a3	51		 push	 ecx
  000a4	e8 00 00 00 00	 call	 _fread
  000a9	83 c4 10	 add	 esp, 16			; 00000010H
  000ac	89 85 70 ef ff
	ff		 mov	 DWORD PTR _numBytesRead$[ebp], eax

; 317  : 			if(numBytesRead == 0) break;

  000b2	83 bd 70 ef ff
	ff 00		 cmp	 DWORD PTR _numBytesRead$[ebp], 0
  000b9	75 05		 jne	 SHORT $LN5@sha256
  000bb	e9 a8 00 00 00	 jmp	 $LN7@sha256
$LN5@sha256:

; 318  : 		}
; 319  : 		else

  000c0	eb 67		 jmp	 SHORT $LN4@sha256
$LN6@sha256:

; 320  : 		{
; 321  : 			if(dataBufferIndex >= dataLength) break;

  000c2	8b 85 64 ef ff
	ff		 mov	 eax, DWORD PTR _dataBufferIndex$[ebp]
  000c8	3b 45 10	 cmp	 eax, DWORD PTR _dataLength$[ebp]
  000cb	72 05		 jb	 SHORT $LN3@sha256
  000cd	e9 96 00 00 00	 jmp	 $LN7@sha256
$LN3@sha256:

; 322  : 
; 323  : 			numBytesRead = dataLength - dataBufferIndex;

  000d2	8b 45 10	 mov	 eax, DWORD PTR _dataLength$[ebp]
  000d5	2b 85 64 ef ff
	ff		 sub	 eax, DWORD PTR _dataBufferIndex$[ebp]
  000db	89 85 70 ef ff
	ff		 mov	 DWORD PTR _numBytesRead$[ebp], eax

; 324  : 			if(numBytesRead >  sizeof(buffer) ) numBytesRead = sizeof(buffer);

  000e1	81 bd 70 ef ff
	ff 00 10 00 00	 cmp	 DWORD PTR _numBytesRead$[ebp], 4096 ; 00001000H
  000eb	76 0a		 jbe	 SHORT $LN2@sha256
  000ed	c7 85 70 ef ff
	ff 00 10 00 00	 mov	 DWORD PTR _numBytesRead$[ebp], 4096 ; 00001000H
$LN2@sha256:

; 325  : 
; 326  : 			memcpy(buffer, &dataBuffer[dataBufferIndex], numBytesRead );

  000f7	8b 85 70 ef ff
	ff		 mov	 eax, DWORD PTR _numBytesRead$[ebp]
  000fd	50		 push	 eax
  000fe	8b 4d 0c	 mov	 ecx, DWORD PTR _dataBuffer$[ebp]
  00101	03 8d 64 ef ff
	ff		 add	 ecx, DWORD PTR _dataBufferIndex$[ebp]
  00107	51		 push	 ecx
  00108	8d 95 7c ef ff
	ff		 lea	 edx, DWORD PTR _buffer$[ebp]
  0010e	52		 push	 edx
  0010f	e8 00 00 00 00	 call	 _memcpy
  00114	83 c4 0c	 add	 esp, 12			; 0000000cH

; 327  : 			dataBufferIndex += numBytesRead;

  00117	8b 85 64 ef ff
	ff		 mov	 eax, DWORD PTR _dataBufferIndex$[ebp]
  0011d	03 85 70 ef ff
	ff		 add	 eax, DWORD PTR _numBytesRead$[ebp]
  00123	89 85 64 ef ff
	ff		 mov	 DWORD PTR _dataBufferIndex$[ebp], eax
$LN4@sha256:

; 328  : 		}
; 329  : 		totalByteCount += numBytesRead;

  00129	8b 85 70 ef ff
	ff		 mov	 eax, DWORD PTR _numBytesRead$[ebp]
  0012f	33 c9		 xor	 ecx, ecx
  00131	03 85 54 ef ff
	ff		 add	 eax, DWORD PTR _totalByteCount$[ebp]
  00137	13 8d 58 ef ff
	ff		 adc	 ecx, DWORD PTR _totalByteCount$[ebp+4]
  0013d	89 85 54 ef ff
	ff		 mov	 DWORD PTR _totalByteCount$[ebp], eax
  00143	89 8d 58 ef ff
	ff		 mov	 DWORD PTR _totalByteCount$[ebp+4], ecx

; 330  : 
; 331  : 		sha256_update( &ctx, buffer, numBytesRead );

  00149	8b 85 70 ef ff
	ff		 mov	 eax, DWORD PTR _numBytesRead$[ebp]
  0014f	50		 push	 eax
  00150	8d 8d 7c ef ff
	ff		 lea	 ecx, DWORD PTR _buffer$[ebp]
  00156	51		 push	 ecx
  00157	8d 55 84	 lea	 edx, DWORD PTR _ctx$[ebp]
  0015a	52		 push	 edx
  0015b	e8 00 00 00 00	 call	 ?sha256_update@@YAXPAUsha256_context@@PAEK@Z ; sha256_update
  00160	83 c4 0c	 add	 esp, 12			; 0000000cH

; 332  : 	}

  00163	e9 17 ff ff ff	 jmp	 $LN8@sha256
$LN7@sha256:

; 333  : 	sha256_finish( &ctx, sha256sum );

  00168	8b 45 14	 mov	 eax, DWORD PTR _sha256sum$[ebp]
  0016b	50		 push	 eax
  0016c	8d 4d 84	 lea	 ecx, DWORD PTR _ctx$[ebp]
  0016f	51		 push	 ecx
  00170	e8 00 00 00 00	 call	 ?sha256_finish@@YAXPAUsha256_context@@QAE@Z ; sha256_finish
  00175	83 c4 08	 add	 esp, 8

; 334  : 
; 335  : 	if(fptrIn != NULL) fclose(fptrIn);

  00178	83 7d f4 00	 cmp	 DWORD PTR _fptrIn$[ebp], 0
  0017c	74 0c		 je	 SHORT $LN1@sha256
  0017e	8b 45 f4	 mov	 eax, DWORD PTR _fptrIn$[ebp]
  00181	50		 push	 eax
  00182	e8 00 00 00 00	 call	 _fclose
  00187	83 c4 04	 add	 esp, 4
$LN1@sha256:

; 336  : 	return 0;

  0018a	33 c0		 xor	 eax, eax

; 337  : } // sha256

  0018c	52		 push	 edx
  0018d	8b cd		 mov	 ecx, ebp
  0018f	50		 push	 eax
  00190	8d 15 00 00 00
	00		 lea	 edx, DWORD PTR $LN15@sha256
  00196	e8 00 00 00 00	 call	 @_RTC_CheckStackVars@8
  0019b	58		 pop	 eax
  0019c	5a		 pop	 edx
  0019d	5f		 pop	 edi
  0019e	5e		 pop	 esi
  0019f	5b		 pop	 ebx
  001a0	8b 4d fc	 mov	 ecx, DWORD PTR __$ArrayPad$[ebp]
  001a3	33 cd		 xor	 ecx, ebp
  001a5	e8 00 00 00 00	 call	 @__security_check_cookie@4
  001aa	81 c4 70 11 00
	00		 add	 esp, 4464		; 00001170H
  001b0	3b ec		 cmp	 ebp, esp
  001b2	e8 00 00 00 00	 call	 __RTC_CheckEsp
  001b7	8b e5		 mov	 esp, ebp
  001b9	5d		 pop	 ebp
  001ba	c3		 ret	 0
  001bb	90		 npad	 1
$LN15@sha256:
  001bc	02 00 00 00	 DD	 2
  001c0	00 00 00 00	 DD	 $LN14@sha256
$LN14@sha256:
  001c4	84 ff ff ff	 DD	 -124			; ffffff84H
  001c8	68 00 00 00	 DD	 104			; 00000068H
  001cc	00 00 00 00	 DD	 $LN12@sha256
  001d0	7c ef ff ff	 DD	 -4228			; ffffef7cH
  001d4	00 10 00 00	 DD	 4096			; 00001000H
  001d8	00 00 00 00	 DD	 $LN13@sha256
$LN13@sha256:
  001dc	62		 DB	 98			; 00000062H
  001dd	75		 DB	 117			; 00000075H
  001de	66		 DB	 102			; 00000066H
  001df	66		 DB	 102			; 00000066H
  001e0	65		 DB	 101			; 00000065H
  001e1	72		 DB	 114			; 00000072H
  001e2	00		 DB	 0
$LN12@sha256:
  001e3	63		 DB	 99			; 00000063H
  001e4	74		 DB	 116			; 00000074H
  001e5	78		 DB	 120			; 00000078H
  001e6	00		 DB	 0
?sha256@@YAHPAD0KQAE@Z ENDP				; sha256
_TEXT	ENDS
; Function compile flags: /Odtp /RTCsu /ZI
; File c:\users\chenj\onedrive\documents\visual studio 2013\projects\team_06_cs3843_project\team_06_cs3843_project\sha-256.cpp
;	COMDAT ?sha256_process@@YAXPAUsha256_context@@QAE@Z
_TEXT	SEGMENT
tv5012 = -580						; size = 4
tv4929 = -580						; size = 4
tv4846 = -580						; size = 4
tv4763 = -580						; size = 4
tv4680 = -580						; size = 4
tv4597 = -580						; size = 4
tv4514 = -580						; size = 4
tv4431 = -580						; size = 4
tv4348 = -580						; size = 4
tv4265 = -580						; size = 4
tv4182 = -580						; size = 4
tv4099 = -580						; size = 4
tv4016 = -580						; size = 4
tv3933 = -580						; size = 4
tv3850 = -580						; size = 4
tv3767 = -580						; size = 4
tv3684 = -580						; size = 4
tv3601 = -580						; size = 4
tv3518 = -580						; size = 4
tv3435 = -580						; size = 4
tv3352 = -580						; size = 4
tv3269 = -580						; size = 4
tv3186 = -580						; size = 4
tv3103 = -580						; size = 4
tv3020 = -580						; size = 4
tv2937 = -580						; size = 4
tv2854 = -580						; size = 4
tv2771 = -580						; size = 4
tv2688 = -580						; size = 4
tv2605 = -580						; size = 4
tv2522 = -580						; size = 4
tv2439 = -580						; size = 4
tv2356 = -580						; size = 4
tv2273 = -580						; size = 4
tv2190 = -580						; size = 4
tv2107 = -580						; size = 4
tv2024 = -580						; size = 4
tv1941 = -580						; size = 4
tv1858 = -580						; size = 4
tv1775 = -580						; size = 4
tv1692 = -580						; size = 4
tv1609 = -580						; size = 4
tv1526 = -580						; size = 4
tv1443 = -580						; size = 4
tv1360 = -580						; size = 4
tv1277 = -580						; size = 4
tv1194 = -580						; size = 4
tv1111 = -580						; size = 4
_H$ = -380						; size = 4
_G$ = -368						; size = 4
_F$ = -356						; size = 4
_E$ = -344						; size = 4
_D$ = -332						; size = 4
_C$ = -320						; size = 4
_B$ = -308						; size = 4
_A$ = -296						; size = 4
_W$ = -284						; size = 256
_temp2$ = -20						; size = 4
_temp1$ = -8						; size = 4
_ctx$ = 8						; size = 4
_data$ = 12						; size = 4
?sha256_process@@YAXPAUsha256_context@@QAE@Z PROC	; sha256_process, COMDAT

; 59   : {

  00000	55		 push	 ebp
  00001	8b ec		 mov	 ebp, esp
  00003	81 ec 44 02 00
	00		 sub	 esp, 580		; 00000244H
  00009	53		 push	 ebx
  0000a	56		 push	 esi
  0000b	57		 push	 edi
  0000c	8d bd bc fd ff
	ff		 lea	 edi, DWORD PTR [ebp-580]
  00012	b9 91 00 00 00	 mov	 ecx, 145		; 00000091H
  00017	b8 cc cc cc cc	 mov	 eax, -858993460		; ccccccccH
  0001c	f3 ab		 rep stosd

; 60   :     uint32 temp1, temp2, W[64];
; 61   :     uint32 A, B, C, D, E, F, G, H;
; 62   : 
; 63   :     GET_UINT32( W[0],  data,  0 );

  0001e	b8 01 00 00 00	 mov	 eax, 1
  00023	6b c8 00	 imul	 ecx, eax, 0
  00026	8b 55 0c	 mov	 edx, DWORD PTR _data$[ebp]
  00029	0f b6 04 0a	 movzx	 eax, BYTE PTR [edx+ecx]
  0002d	c1 e0 18	 shl	 eax, 24			; 00000018H
  00030	b9 01 00 00 00	 mov	 ecx, 1
  00035	c1 e1 00	 shl	 ecx, 0
  00038	8b 55 0c	 mov	 edx, DWORD PTR _data$[ebp]
  0003b	0f b6 0c 0a	 movzx	 ecx, BYTE PTR [edx+ecx]
  0003f	c1 e1 10	 shl	 ecx, 16			; 00000010H
  00042	0b c1		 or	 eax, ecx
  00044	ba 01 00 00 00	 mov	 edx, 1
  00049	d1 e2		 shl	 edx, 1
  0004b	8b 4d 0c	 mov	 ecx, DWORD PTR _data$[ebp]
  0004e	0f b6 14 11	 movzx	 edx, BYTE PTR [ecx+edx]
  00052	c1 e2 08	 shl	 edx, 8
  00055	0b c2		 or	 eax, edx
  00057	b9 01 00 00 00	 mov	 ecx, 1
  0005c	6b d1 03	 imul	 edx, ecx, 3
  0005f	8b 4d 0c	 mov	 ecx, DWORD PTR _data$[ebp]
  00062	0f b6 14 11	 movzx	 edx, BYTE PTR [ecx+edx]
  00066	0b c2		 or	 eax, edx
  00068	b9 04 00 00 00	 mov	 ecx, 4
  0006d	6b d1 00	 imul	 edx, ecx, 0
  00070	89 84 15 e4 fe
	ff ff		 mov	 DWORD PTR _W$[ebp+edx], eax

; 64   :     GET_UINT32( W[1],  data,  4 );

  00077	b8 01 00 00 00	 mov	 eax, 1
  0007c	c1 e0 02	 shl	 eax, 2
  0007f	8b 4d 0c	 mov	 ecx, DWORD PTR _data$[ebp]
  00082	0f b6 14 01	 movzx	 edx, BYTE PTR [ecx+eax]
  00086	c1 e2 18	 shl	 edx, 24			; 00000018H
  00089	b8 01 00 00 00	 mov	 eax, 1
  0008e	6b c8 05	 imul	 ecx, eax, 5
  00091	8b 45 0c	 mov	 eax, DWORD PTR _data$[ebp]
  00094	0f b6 0c 08	 movzx	 ecx, BYTE PTR [eax+ecx]
  00098	c1 e1 10	 shl	 ecx, 16			; 00000010H
  0009b	0b d1		 or	 edx, ecx
  0009d	b8 01 00 00 00	 mov	 eax, 1
  000a2	6b c8 06	 imul	 ecx, eax, 6
  000a5	8b 45 0c	 mov	 eax, DWORD PTR _data$[ebp]
  000a8	0f b6 0c 08	 movzx	 ecx, BYTE PTR [eax+ecx]
  000ac	c1 e1 08	 shl	 ecx, 8
  000af	0b d1		 or	 edx, ecx
  000b1	b8 01 00 00 00	 mov	 eax, 1
  000b6	6b c8 07	 imul	 ecx, eax, 7
  000b9	8b 45 0c	 mov	 eax, DWORD PTR _data$[ebp]
  000bc	0f b6 0c 08	 movzx	 ecx, BYTE PTR [eax+ecx]
  000c0	0b d1		 or	 edx, ecx
  000c2	b8 04 00 00 00	 mov	 eax, 4
  000c7	c1 e0 00	 shl	 eax, 0
  000ca	89 94 05 e4 fe
	ff ff		 mov	 DWORD PTR _W$[ebp+eax], edx

; 65   :     GET_UINT32( W[2],  data,  8 );

  000d1	b8 01 00 00 00	 mov	 eax, 1
  000d6	c1 e0 03	 shl	 eax, 3
  000d9	8b 4d 0c	 mov	 ecx, DWORD PTR _data$[ebp]
  000dc	0f b6 14 01	 movzx	 edx, BYTE PTR [ecx+eax]
  000e0	c1 e2 18	 shl	 edx, 24			; 00000018H
  000e3	b8 01 00 00 00	 mov	 eax, 1
  000e8	6b c8 09	 imul	 ecx, eax, 9
  000eb	8b 45 0c	 mov	 eax, DWORD PTR _data$[ebp]
  000ee	0f b6 0c 08	 movzx	 ecx, BYTE PTR [eax+ecx]
  000f2	c1 e1 10	 shl	 ecx, 16			; 00000010H
  000f5	0b d1		 or	 edx, ecx
  000f7	b8 01 00 00 00	 mov	 eax, 1
  000fc	6b c8 0a	 imul	 ecx, eax, 10
  000ff	8b 45 0c	 mov	 eax, DWORD PTR _data$[ebp]
  00102	0f b6 0c 08	 movzx	 ecx, BYTE PTR [eax+ecx]
  00106	c1 e1 08	 shl	 ecx, 8
  00109	0b d1		 or	 edx, ecx
  0010b	b8 01 00 00 00	 mov	 eax, 1
  00110	6b c8 0b	 imul	 ecx, eax, 11
  00113	8b 45 0c	 mov	 eax, DWORD PTR _data$[ebp]
  00116	0f b6 0c 08	 movzx	 ecx, BYTE PTR [eax+ecx]
  0011a	0b d1		 or	 edx, ecx
  0011c	b8 04 00 00 00	 mov	 eax, 4
  00121	d1 e0		 shl	 eax, 1
  00123	89 94 05 e4 fe
	ff ff		 mov	 DWORD PTR _W$[ebp+eax], edx

; 66   :     GET_UINT32( W[3],  data, 12 );

  0012a	b8 01 00 00 00	 mov	 eax, 1
  0012f	6b c8 0c	 imul	 ecx, eax, 12
  00132	8b 55 0c	 mov	 edx, DWORD PTR _data$[ebp]
  00135	0f b6 04 0a	 movzx	 eax, BYTE PTR [edx+ecx]
  00139	c1 e0 18	 shl	 eax, 24			; 00000018H
  0013c	b9 01 00 00 00	 mov	 ecx, 1
  00141	6b d1 0d	 imul	 edx, ecx, 13
  00144	8b 4d 0c	 mov	 ecx, DWORD PTR _data$[ebp]
  00147	0f b6 14 11	 movzx	 edx, BYTE PTR [ecx+edx]
  0014b	c1 e2 10	 shl	 edx, 16			; 00000010H
  0014e	0b c2		 or	 eax, edx
  00150	b9 01 00 00 00	 mov	 ecx, 1
  00155	6b d1 0e	 imul	 edx, ecx, 14
  00158	8b 4d 0c	 mov	 ecx, DWORD PTR _data$[ebp]
  0015b	0f b6 14 11	 movzx	 edx, BYTE PTR [ecx+edx]
  0015f	c1 e2 08	 shl	 edx, 8
  00162	0b c2		 or	 eax, edx
  00164	b9 01 00 00 00	 mov	 ecx, 1
  00169	6b d1 0f	 imul	 edx, ecx, 15
  0016c	8b 4d 0c	 mov	 ecx, DWORD PTR _data$[ebp]
  0016f	0f b6 14 11	 movzx	 edx, BYTE PTR [ecx+edx]
  00173	0b c2		 or	 eax, edx
  00175	b9 04 00 00 00	 mov	 ecx, 4
  0017a	6b d1 03	 imul	 edx, ecx, 3
  0017d	89 84 15 e4 fe
	ff ff		 mov	 DWORD PTR _W$[ebp+edx], eax

; 67   :     GET_UINT32( W[4],  data, 16 );

  00184	b8 01 00 00 00	 mov	 eax, 1
  00189	c1 e0 04	 shl	 eax, 4
  0018c	8b 4d 0c	 mov	 ecx, DWORD PTR _data$[ebp]
  0018f	0f b6 14 01	 movzx	 edx, BYTE PTR [ecx+eax]
  00193	c1 e2 18	 shl	 edx, 24			; 00000018H
  00196	b8 01 00 00 00	 mov	 eax, 1
  0019b	6b c8 11	 imul	 ecx, eax, 17
  0019e	8b 45 0c	 mov	 eax, DWORD PTR _data$[ebp]
  001a1	0f b6 0c 08	 movzx	 ecx, BYTE PTR [eax+ecx]
  001a5	c1 e1 10	 shl	 ecx, 16			; 00000010H
  001a8	0b d1		 or	 edx, ecx
  001aa	b8 01 00 00 00	 mov	 eax, 1
  001af	6b c8 12	 imul	 ecx, eax, 18
  001b2	8b 45 0c	 mov	 eax, DWORD PTR _data$[ebp]
  001b5	0f b6 0c 08	 movzx	 ecx, BYTE PTR [eax+ecx]
  001b9	c1 e1 08	 shl	 ecx, 8
  001bc	0b d1		 or	 edx, ecx
  001be	b8 01 00 00 00	 mov	 eax, 1
  001c3	6b c8 13	 imul	 ecx, eax, 19
  001c6	8b 45 0c	 mov	 eax, DWORD PTR _data$[ebp]
  001c9	0f b6 0c 08	 movzx	 ecx, BYTE PTR [eax+ecx]
  001cd	0b d1		 or	 edx, ecx
  001cf	b8 04 00 00 00	 mov	 eax, 4
  001d4	c1 e0 02	 shl	 eax, 2
  001d7	89 94 05 e4 fe
	ff ff		 mov	 DWORD PTR _W$[ebp+eax], edx

; 68   :     GET_UINT32( W[5],  data, 20 );

  001de	b8 01 00 00 00	 mov	 eax, 1
  001e3	6b c8 14	 imul	 ecx, eax, 20
  001e6	8b 55 0c	 mov	 edx, DWORD PTR _data$[ebp]
  001e9	0f b6 04 0a	 movzx	 eax, BYTE PTR [edx+ecx]
  001ed	c1 e0 18	 shl	 eax, 24			; 00000018H
  001f0	b9 01 00 00 00	 mov	 ecx, 1
  001f5	6b d1 15	 imul	 edx, ecx, 21
  001f8	8b 4d 0c	 mov	 ecx, DWORD PTR _data$[ebp]
  001fb	0f b6 14 11	 movzx	 edx, BYTE PTR [ecx+edx]
  001ff	c1 e2 10	 shl	 edx, 16			; 00000010H
  00202	0b c2		 or	 eax, edx
  00204	b9 01 00 00 00	 mov	 ecx, 1
  00209	6b d1 16	 imul	 edx, ecx, 22
  0020c	8b 4d 0c	 mov	 ecx, DWORD PTR _data$[ebp]
  0020f	0f b6 14 11	 movzx	 edx, BYTE PTR [ecx+edx]
  00213	c1 e2 08	 shl	 edx, 8
  00216	0b c2		 or	 eax, edx
  00218	b9 01 00 00 00	 mov	 ecx, 1
  0021d	6b d1 17	 imul	 edx, ecx, 23
  00220	8b 4d 0c	 mov	 ecx, DWORD PTR _data$[ebp]
  00223	0f b6 14 11	 movzx	 edx, BYTE PTR [ecx+edx]
  00227	0b c2		 or	 eax, edx
  00229	b9 04 00 00 00	 mov	 ecx, 4
  0022e	6b d1 05	 imul	 edx, ecx, 5
  00231	89 84 15 e4 fe
	ff ff		 mov	 DWORD PTR _W$[ebp+edx], eax

; 69   :     GET_UINT32( W[6],  data, 24 );

  00238	b8 01 00 00 00	 mov	 eax, 1
  0023d	6b c8 18	 imul	 ecx, eax, 24
  00240	8b 55 0c	 mov	 edx, DWORD PTR _data$[ebp]
  00243	0f b6 04 0a	 movzx	 eax, BYTE PTR [edx+ecx]
  00247	c1 e0 18	 shl	 eax, 24			; 00000018H
  0024a	b9 01 00 00 00	 mov	 ecx, 1
  0024f	6b d1 19	 imul	 edx, ecx, 25
  00252	8b 4d 0c	 mov	 ecx, DWORD PTR _data$[ebp]
  00255	0f b6 14 11	 movzx	 edx, BYTE PTR [ecx+edx]
  00259	c1 e2 10	 shl	 edx, 16			; 00000010H
  0025c	0b c2		 or	 eax, edx
  0025e	b9 01 00 00 00	 mov	 ecx, 1
  00263	6b d1 1a	 imul	 edx, ecx, 26
  00266	8b 4d 0c	 mov	 ecx, DWORD PTR _data$[ebp]
  00269	0f b6 14 11	 movzx	 edx, BYTE PTR [ecx+edx]
  0026d	c1 e2 08	 shl	 edx, 8
  00270	0b c2		 or	 eax, edx
  00272	b9 01 00 00 00	 mov	 ecx, 1
  00277	6b d1 1b	 imul	 edx, ecx, 27
  0027a	8b 4d 0c	 mov	 ecx, DWORD PTR _data$[ebp]
  0027d	0f b6 14 11	 movzx	 edx, BYTE PTR [ecx+edx]
  00281	0b c2		 or	 eax, edx
  00283	b9 04 00 00 00	 mov	 ecx, 4
  00288	6b d1 06	 imul	 edx, ecx, 6
  0028b	89 84 15 e4 fe
	ff ff		 mov	 DWORD PTR _W$[ebp+edx], eax

; 70   :     GET_UINT32( W[7],  data, 28 );

  00292	b8 01 00 00 00	 mov	 eax, 1
  00297	6b c8 1c	 imul	 ecx, eax, 28
  0029a	8b 55 0c	 mov	 edx, DWORD PTR _data$[ebp]
  0029d	0f b6 04 0a	 movzx	 eax, BYTE PTR [edx+ecx]
  002a1	c1 e0 18	 shl	 eax, 24			; 00000018H
  002a4	b9 01 00 00 00	 mov	 ecx, 1
  002a9	6b d1 1d	 imul	 edx, ecx, 29
  002ac	8b 4d 0c	 mov	 ecx, DWORD PTR _data$[ebp]
  002af	0f b6 14 11	 movzx	 edx, BYTE PTR [ecx+edx]
  002b3	c1 e2 10	 shl	 edx, 16			; 00000010H
  002b6	0b c2		 or	 eax, edx
  002b8	b9 01 00 00 00	 mov	 ecx, 1
  002bd	6b d1 1e	 imul	 edx, ecx, 30
  002c0	8b 4d 0c	 mov	 ecx, DWORD PTR _data$[ebp]
  002c3	0f b6 14 11	 movzx	 edx, BYTE PTR [ecx+edx]
  002c7	c1 e2 08	 shl	 edx, 8
  002ca	0b c2		 or	 eax, edx
  002cc	b9 01 00 00 00	 mov	 ecx, 1
  002d1	6b d1 1f	 imul	 edx, ecx, 31
  002d4	8b 4d 0c	 mov	 ecx, DWORD PTR _data$[ebp]
  002d7	0f b6 14 11	 movzx	 edx, BYTE PTR [ecx+edx]
  002db	0b c2		 or	 eax, edx
  002dd	b9 04 00 00 00	 mov	 ecx, 4
  002e2	6b d1 07	 imul	 edx, ecx, 7
  002e5	89 84 15 e4 fe
	ff ff		 mov	 DWORD PTR _W$[ebp+edx], eax

; 71   :     GET_UINT32( W[8],  data, 32 );

  002ec	b8 01 00 00 00	 mov	 eax, 1
  002f1	c1 e0 05	 shl	 eax, 5
  002f4	8b 4d 0c	 mov	 ecx, DWORD PTR _data$[ebp]
  002f7	0f b6 14 01	 movzx	 edx, BYTE PTR [ecx+eax]
  002fb	c1 e2 18	 shl	 edx, 24			; 00000018H
  002fe	b8 01 00 00 00	 mov	 eax, 1
  00303	6b c8 21	 imul	 ecx, eax, 33
  00306	8b 45 0c	 mov	 eax, DWORD PTR _data$[ebp]
  00309	0f b6 0c 08	 movzx	 ecx, BYTE PTR [eax+ecx]
  0030d	c1 e1 10	 shl	 ecx, 16			; 00000010H
  00310	0b d1		 or	 edx, ecx
  00312	b8 01 00 00 00	 mov	 eax, 1
  00317	6b c8 22	 imul	 ecx, eax, 34
  0031a	8b 45 0c	 mov	 eax, DWORD PTR _data$[ebp]
  0031d	0f b6 0c 08	 movzx	 ecx, BYTE PTR [eax+ecx]
  00321	c1 e1 08	 shl	 ecx, 8
  00324	0b d1		 or	 edx, ecx
  00326	b8 01 00 00 00	 mov	 eax, 1
  0032b	6b c8 23	 imul	 ecx, eax, 35
  0032e	8b 45 0c	 mov	 eax, DWORD PTR _data$[ebp]
  00331	0f b6 0c 08	 movzx	 ecx, BYTE PTR [eax+ecx]
  00335	0b d1		 or	 edx, ecx
  00337	b8 04 00 00 00	 mov	 eax, 4
  0033c	c1 e0 03	 shl	 eax, 3
  0033f	89 94 05 e4 fe
	ff ff		 mov	 DWORD PTR _W$[ebp+eax], edx

; 72   :     GET_UINT32( W[9],  data, 36 );

  00346	b8 01 00 00 00	 mov	 eax, 1
  0034b	6b c8 24	 imul	 ecx, eax, 36
  0034e	8b 55 0c	 mov	 edx, DWORD PTR _data$[ebp]
  00351	0f b6 04 0a	 movzx	 eax, BYTE PTR [edx+ecx]
  00355	c1 e0 18	 shl	 eax, 24			; 00000018H
  00358	b9 01 00 00 00	 mov	 ecx, 1
  0035d	6b d1 25	 imul	 edx, ecx, 37
  00360	8b 4d 0c	 mov	 ecx, DWORD PTR _data$[ebp]
  00363	0f b6 14 11	 movzx	 edx, BYTE PTR [ecx+edx]
  00367	c1 e2 10	 shl	 edx, 16			; 00000010H
  0036a	0b c2		 or	 eax, edx
  0036c	b9 01 00 00 00	 mov	 ecx, 1
  00371	6b d1 26	 imul	 edx, ecx, 38
  00374	8b 4d 0c	 mov	 ecx, DWORD PTR _data$[ebp]
  00377	0f b6 14 11	 movzx	 edx, BYTE PTR [ecx+edx]
  0037b	c1 e2 08	 shl	 edx, 8
  0037e	0b c2		 or	 eax, edx
  00380	b9 01 00 00 00	 mov	 ecx, 1
  00385	6b d1 27	 imul	 edx, ecx, 39
  00388	8b 4d 0c	 mov	 ecx, DWORD PTR _data$[ebp]
  0038b	0f b6 14 11	 movzx	 edx, BYTE PTR [ecx+edx]
  0038f	0b c2		 or	 eax, edx
  00391	b9 04 00 00 00	 mov	 ecx, 4
  00396	6b d1 09	 imul	 edx, ecx, 9
  00399	89 84 15 e4 fe
	ff ff		 mov	 DWORD PTR _W$[ebp+edx], eax

; 73   :     GET_UINT32( W[10], data, 40 );

  003a0	b8 01 00 00 00	 mov	 eax, 1
  003a5	6b c8 28	 imul	 ecx, eax, 40
  003a8	8b 55 0c	 mov	 edx, DWORD PTR _data$[ebp]
  003ab	0f b6 04 0a	 movzx	 eax, BYTE PTR [edx+ecx]
  003af	c1 e0 18	 shl	 eax, 24			; 00000018H
  003b2	b9 01 00 00 00	 mov	 ecx, 1
  003b7	6b d1 29	 imul	 edx, ecx, 41
  003ba	8b 4d 0c	 mov	 ecx, DWORD PTR _data$[ebp]
  003bd	0f b6 14 11	 movzx	 edx, BYTE PTR [ecx+edx]
  003c1	c1 e2 10	 shl	 edx, 16			; 00000010H
  003c4	0b c2		 or	 eax, edx
  003c6	b9 01 00 00 00	 mov	 ecx, 1
  003cb	6b d1 2a	 imul	 edx, ecx, 42
  003ce	8b 4d 0c	 mov	 ecx, DWORD PTR _data$[ebp]
  003d1	0f b6 14 11	 movzx	 edx, BYTE PTR [ecx+edx]
  003d5	c1 e2 08	 shl	 edx, 8
  003d8	0b c2		 or	 eax, edx
  003da	b9 01 00 00 00	 mov	 ecx, 1
  003df	6b d1 2b	 imul	 edx, ecx, 43
  003e2	8b 4d 0c	 mov	 ecx, DWORD PTR _data$[ebp]
  003e5	0f b6 14 11	 movzx	 edx, BYTE PTR [ecx+edx]
  003e9	0b c2		 or	 eax, edx
  003eb	b9 04 00 00 00	 mov	 ecx, 4
  003f0	6b d1 0a	 imul	 edx, ecx, 10
  003f3	89 84 15 e4 fe
	ff ff		 mov	 DWORD PTR _W$[ebp+edx], eax

; 74   :     GET_UINT32( W[11], data, 44 );

  003fa	b8 01 00 00 00	 mov	 eax, 1
  003ff	6b c8 2c	 imul	 ecx, eax, 44
  00402	8b 55 0c	 mov	 edx, DWORD PTR _data$[ebp]
  00405	0f b6 04 0a	 movzx	 eax, BYTE PTR [edx+ecx]
  00409	c1 e0 18	 shl	 eax, 24			; 00000018H
  0040c	b9 01 00 00 00	 mov	 ecx, 1
  00411	6b d1 2d	 imul	 edx, ecx, 45
  00414	8b 4d 0c	 mov	 ecx, DWORD PTR _data$[ebp]
  00417	0f b6 14 11	 movzx	 edx, BYTE PTR [ecx+edx]
  0041b	c1 e2 10	 shl	 edx, 16			; 00000010H
  0041e	0b c2		 or	 eax, edx
  00420	b9 01 00 00 00	 mov	 ecx, 1
  00425	6b d1 2e	 imul	 edx, ecx, 46
  00428	8b 4d 0c	 mov	 ecx, DWORD PTR _data$[ebp]
  0042b	0f b6 14 11	 movzx	 edx, BYTE PTR [ecx+edx]
  0042f	c1 e2 08	 shl	 edx, 8
  00432	0b c2		 or	 eax, edx
  00434	b9 01 00 00 00	 mov	 ecx, 1
  00439	6b d1 2f	 imul	 edx, ecx, 47
  0043c	8b 4d 0c	 mov	 ecx, DWORD PTR _data$[ebp]
  0043f	0f b6 14 11	 movzx	 edx, BYTE PTR [ecx+edx]
  00443	0b c2		 or	 eax, edx
  00445	b9 04 00 00 00	 mov	 ecx, 4
  0044a	6b d1 0b	 imul	 edx, ecx, 11
  0044d	89 84 15 e4 fe
	ff ff		 mov	 DWORD PTR _W$[ebp+edx], eax

; 75   :     GET_UINT32( W[12], data, 48 );

  00454	b8 01 00 00 00	 mov	 eax, 1
  00459	6b c8 30	 imul	 ecx, eax, 48
  0045c	8b 55 0c	 mov	 edx, DWORD PTR _data$[ebp]
  0045f	0f b6 04 0a	 movzx	 eax, BYTE PTR [edx+ecx]
  00463	c1 e0 18	 shl	 eax, 24			; 00000018H
  00466	b9 01 00 00 00	 mov	 ecx, 1
  0046b	6b d1 31	 imul	 edx, ecx, 49
  0046e	8b 4d 0c	 mov	 ecx, DWORD PTR _data$[ebp]
  00471	0f b6 14 11	 movzx	 edx, BYTE PTR [ecx+edx]
  00475	c1 e2 10	 shl	 edx, 16			; 00000010H
  00478	0b c2		 or	 eax, edx
  0047a	b9 01 00 00 00	 mov	 ecx, 1
  0047f	6b d1 32	 imul	 edx, ecx, 50
  00482	8b 4d 0c	 mov	 ecx, DWORD PTR _data$[ebp]
  00485	0f b6 14 11	 movzx	 edx, BYTE PTR [ecx+edx]
  00489	c1 e2 08	 shl	 edx, 8
  0048c	0b c2		 or	 eax, edx
  0048e	b9 01 00 00 00	 mov	 ecx, 1
  00493	6b d1 33	 imul	 edx, ecx, 51
  00496	8b 4d 0c	 mov	 ecx, DWORD PTR _data$[ebp]
  00499	0f b6 14 11	 movzx	 edx, BYTE PTR [ecx+edx]
  0049d	0b c2		 or	 eax, edx
  0049f	b9 04 00 00 00	 mov	 ecx, 4
  004a4	6b d1 0c	 imul	 edx, ecx, 12
  004a7	89 84 15 e4 fe
	ff ff		 mov	 DWORD PTR _W$[ebp+edx], eax

; 76   :     GET_UINT32( W[13], data, 52 );

  004ae	b8 01 00 00 00	 mov	 eax, 1
  004b3	6b c8 34	 imul	 ecx, eax, 52
  004b6	8b 55 0c	 mov	 edx, DWORD PTR _data$[ebp]
  004b9	0f b6 04 0a	 movzx	 eax, BYTE PTR [edx+ecx]
  004bd	c1 e0 18	 shl	 eax, 24			; 00000018H
  004c0	b9 01 00 00 00	 mov	 ecx, 1
  004c5	6b d1 35	 imul	 edx, ecx, 53
  004c8	8b 4d 0c	 mov	 ecx, DWORD PTR _data$[ebp]
  004cb	0f b6 14 11	 movzx	 edx, BYTE PTR [ecx+edx]
  004cf	c1 e2 10	 shl	 edx, 16			; 00000010H
  004d2	0b c2		 or	 eax, edx
  004d4	b9 01 00 00 00	 mov	 ecx, 1
  004d9	6b d1 36	 imul	 edx, ecx, 54
  004dc	8b 4d 0c	 mov	 ecx, DWORD PTR _data$[ebp]
  004df	0f b6 14 11	 movzx	 edx, BYTE PTR [ecx+edx]
  004e3	c1 e2 08	 shl	 edx, 8
  004e6	0b c2		 or	 eax, edx
  004e8	b9 01 00 00 00	 mov	 ecx, 1
  004ed	6b d1 37	 imul	 edx, ecx, 55
  004f0	8b 4d 0c	 mov	 ecx, DWORD PTR _data$[ebp]
  004f3	0f b6 14 11	 movzx	 edx, BYTE PTR [ecx+edx]
  004f7	0b c2		 or	 eax, edx
  004f9	b9 04 00 00 00	 mov	 ecx, 4
  004fe	6b d1 0d	 imul	 edx, ecx, 13
  00501	89 84 15 e4 fe
	ff ff		 mov	 DWORD PTR _W$[ebp+edx], eax

; 77   :     GET_UINT32( W[14], data, 56 );

  00508	b8 01 00 00 00	 mov	 eax, 1
  0050d	6b c8 38	 imul	 ecx, eax, 56
  00510	8b 55 0c	 mov	 edx, DWORD PTR _data$[ebp]
  00513	0f b6 04 0a	 movzx	 eax, BYTE PTR [edx+ecx]
  00517	c1 e0 18	 shl	 eax, 24			; 00000018H
  0051a	b9 01 00 00 00	 mov	 ecx, 1
  0051f	6b d1 39	 imul	 edx, ecx, 57
  00522	8b 4d 0c	 mov	 ecx, DWORD PTR _data$[ebp]
  00525	0f b6 14 11	 movzx	 edx, BYTE PTR [ecx+edx]
  00529	c1 e2 10	 shl	 edx, 16			; 00000010H
  0052c	0b c2		 or	 eax, edx
  0052e	b9 01 00 00 00	 mov	 ecx, 1
  00533	6b d1 3a	 imul	 edx, ecx, 58
  00536	8b 4d 0c	 mov	 ecx, DWORD PTR _data$[ebp]
  00539	0f b6 14 11	 movzx	 edx, BYTE PTR [ecx+edx]
  0053d	c1 e2 08	 shl	 edx, 8
  00540	0b c2		 or	 eax, edx
  00542	b9 01 00 00 00	 mov	 ecx, 1
  00547	6b d1 3b	 imul	 edx, ecx, 59
  0054a	8b 4d 0c	 mov	 ecx, DWORD PTR _data$[ebp]
  0054d	0f b6 14 11	 movzx	 edx, BYTE PTR [ecx+edx]
  00551	0b c2		 or	 eax, edx
  00553	b9 04 00 00 00	 mov	 ecx, 4
  00558	6b d1 0e	 imul	 edx, ecx, 14
  0055b	89 84 15 e4 fe
	ff ff		 mov	 DWORD PTR _W$[ebp+edx], eax

; 78   :     GET_UINT32( W[15], data, 60 );

  00562	b8 01 00 00 00	 mov	 eax, 1
  00567	6b c8 3c	 imul	 ecx, eax, 60
  0056a	8b 55 0c	 mov	 edx, DWORD PTR _data$[ebp]
  0056d	0f b6 04 0a	 movzx	 eax, BYTE PTR [edx+ecx]
  00571	c1 e0 18	 shl	 eax, 24			; 00000018H
  00574	b9 01 00 00 00	 mov	 ecx, 1
  00579	6b d1 3d	 imul	 edx, ecx, 61
  0057c	8b 4d 0c	 mov	 ecx, DWORD PTR _data$[ebp]
  0057f	0f b6 14 11	 movzx	 edx, BYTE PTR [ecx+edx]
  00583	c1 e2 10	 shl	 edx, 16			; 00000010H
  00586	0b c2		 or	 eax, edx
  00588	b9 01 00 00 00	 mov	 ecx, 1
  0058d	6b d1 3e	 imul	 edx, ecx, 62
  00590	8b 4d 0c	 mov	 ecx, DWORD PTR _data$[ebp]
  00593	0f b6 14 11	 movzx	 edx, BYTE PTR [ecx+edx]
  00597	c1 e2 08	 shl	 edx, 8
  0059a	0b c2		 or	 eax, edx
  0059c	b9 01 00 00 00	 mov	 ecx, 1
  005a1	6b d1 3f	 imul	 edx, ecx, 63
  005a4	8b 4d 0c	 mov	 ecx, DWORD PTR _data$[ebp]
  005a7	0f b6 14 11	 movzx	 edx, BYTE PTR [ecx+edx]
  005ab	0b c2		 or	 eax, edx
  005ad	b9 04 00 00 00	 mov	 ecx, 4
  005b2	6b d1 0f	 imul	 edx, ecx, 15
  005b5	89 84 15 e4 fe
	ff ff		 mov	 DWORD PTR _W$[ebp+edx], eax

; 79   : 
; 80   : #define  SHR(x,n) ((x & 0xFFFFFFFF) >> n)
; 81   : #define ROTR(x,n) (SHR(x,n) | (x << (32 - n)))
; 82   : 
; 83   : #define S0(x) (ROTR(x, 7) ^ ROTR(x,18) ^  SHR(x, 3))
; 84   : #define S1(x) (ROTR(x,17) ^ ROTR(x,19) ^  SHR(x,10))
; 85   : 
; 86   : #define S2(x) (ROTR(x, 2) ^ ROTR(x,13) ^ ROTR(x,22))
; 87   : #define S3(x) (ROTR(x, 6) ^ ROTR(x,11) ^ ROTR(x,25))
; 88   : 
; 89   : #define F0(x,y,z) ((x & y) | (z & (x | y)))
; 90   : #define F1(x,y,z) (z ^ (x & (y ^ z)))
; 91   : 
; 92   : #define R(t)                                    \
; 93   : (                                               \
; 94   :     W[t] = S1(W[t -  2]) + W[t -  7] +          \
; 95   :            S0(W[t - 15]) + W[t - 16]            \
; 96   : )
; 97   : 
; 98   : #define P(a,b,c,d,e,f,g,h,x,K)                  \
; 99   : {                                               \
; 100  :     temp1 = h + S3(e) + F1(e,f,g) + K + x;      \
; 101  :     temp2 = S2(a) + F0(a,b,c);                  \
; 102  :     d += temp1; h = temp1 + temp2;              \
; 103  : }
; 104  : 
; 105  :     A = ctx->state[0];

  005bc	b8 04 00 00 00	 mov	 eax, 4
  005c1	6b c8 00	 imul	 ecx, eax, 0
  005c4	8b 55 08	 mov	 edx, DWORD PTR _ctx$[ebp]
  005c7	8b 44 0a 08	 mov	 eax, DWORD PTR [edx+ecx+8]
  005cb	89 85 d8 fe ff
	ff		 mov	 DWORD PTR _A$[ebp], eax

; 106  :     B = ctx->state[1];

  005d1	b8 04 00 00 00	 mov	 eax, 4
  005d6	c1 e0 00	 shl	 eax, 0
  005d9	8b 4d 08	 mov	 ecx, DWORD PTR _ctx$[ebp]
  005dc	8b 54 01 08	 mov	 edx, DWORD PTR [ecx+eax+8]
  005e0	89 95 cc fe ff
	ff		 mov	 DWORD PTR _B$[ebp], edx

; 107  :     C = ctx->state[2];

  005e6	b8 04 00 00 00	 mov	 eax, 4
  005eb	d1 e0		 shl	 eax, 1
  005ed	8b 4d 08	 mov	 ecx, DWORD PTR _ctx$[ebp]
  005f0	8b 54 01 08	 mov	 edx, DWORD PTR [ecx+eax+8]
  005f4	89 95 c0 fe ff
	ff		 mov	 DWORD PTR _C$[ebp], edx

; 108  :     D = ctx->state[3];

  005fa	b8 04 00 00 00	 mov	 eax, 4
  005ff	6b c8 03	 imul	 ecx, eax, 3
  00602	8b 55 08	 mov	 edx, DWORD PTR _ctx$[ebp]
  00605	8b 44 0a 08	 mov	 eax, DWORD PTR [edx+ecx+8]
  00609	89 85 b4 fe ff
	ff		 mov	 DWORD PTR _D$[ebp], eax

; 109  :     E = ctx->state[4];

  0060f	b8 04 00 00 00	 mov	 eax, 4
  00614	c1 e0 02	 shl	 eax, 2
  00617	8b 4d 08	 mov	 ecx, DWORD PTR _ctx$[ebp]
  0061a	8b 54 01 08	 mov	 edx, DWORD PTR [ecx+eax+8]
  0061e	89 95 a8 fe ff
	ff		 mov	 DWORD PTR _E$[ebp], edx

; 110  :     F = ctx->state[5];

  00624	b8 04 00 00 00	 mov	 eax, 4
  00629	6b c8 05	 imul	 ecx, eax, 5
  0062c	8b 55 08	 mov	 edx, DWORD PTR _ctx$[ebp]
  0062f	8b 44 0a 08	 mov	 eax, DWORD PTR [edx+ecx+8]
  00633	89 85 9c fe ff
	ff		 mov	 DWORD PTR _F$[ebp], eax

; 111  :     G = ctx->state[6];

  00639	b8 04 00 00 00	 mov	 eax, 4
  0063e	6b c8 06	 imul	 ecx, eax, 6
  00641	8b 55 08	 mov	 edx, DWORD PTR _ctx$[ebp]
  00644	8b 44 0a 08	 mov	 eax, DWORD PTR [edx+ecx+8]
  00648	89 85 90 fe ff
	ff		 mov	 DWORD PTR _G$[ebp], eax

; 112  :     H = ctx->state[7];

  0064e	b8 04 00 00 00	 mov	 eax, 4
  00653	6b c8 07	 imul	 ecx, eax, 7
  00656	8b 55 08	 mov	 edx, DWORD PTR _ctx$[ebp]
  00659	8b 44 0a 08	 mov	 eax, DWORD PTR [edx+ecx+8]
  0065d	89 85 84 fe ff
	ff		 mov	 DWORD PTR _H$[ebp], eax

; 113  : 
; 114  :     P( A, B, C, D, E, F, G, H, W[ 0], 0x428A2F98 );

  00663	8b 85 a8 fe ff
	ff		 mov	 eax, DWORD PTR _E$[ebp]
  00669	c1 e8 06	 shr	 eax, 6
  0066c	8b 8d a8 fe ff
	ff		 mov	 ecx, DWORD PTR _E$[ebp]
  00672	c1 e1 1a	 shl	 ecx, 26			; 0000001aH
  00675	0b c1		 or	 eax, ecx
  00677	8b 95 a8 fe ff
	ff		 mov	 edx, DWORD PTR _E$[ebp]
  0067d	c1 ea 0b	 shr	 edx, 11			; 0000000bH
  00680	8b 8d a8 fe ff
	ff		 mov	 ecx, DWORD PTR _E$[ebp]
  00686	c1 e1 15	 shl	 ecx, 21			; 00000015H
  00689	0b d1		 or	 edx, ecx
  0068b	33 c2		 xor	 eax, edx
  0068d	8b 95 a8 fe ff
	ff		 mov	 edx, DWORD PTR _E$[ebp]
  00693	c1 ea 19	 shr	 edx, 25			; 00000019H
  00696	8b 8d a8 fe ff
	ff		 mov	 ecx, DWORD PTR _E$[ebp]
  0069c	c1 e1 07	 shl	 ecx, 7
  0069f	0b d1		 or	 edx, ecx
  006a1	33 c2		 xor	 eax, edx
  006a3	03 85 84 fe ff
	ff		 add	 eax, DWORD PTR _H$[ebp]
  006a9	8b 95 9c fe ff
	ff		 mov	 edx, DWORD PTR _F$[ebp]
  006af	33 95 90 fe ff
	ff		 xor	 edx, DWORD PTR _G$[ebp]
  006b5	23 95 a8 fe ff
	ff		 and	 edx, DWORD PTR _E$[ebp]
  006bb	33 95 90 fe ff
	ff		 xor	 edx, DWORD PTR _G$[ebp]
  006c1	03 c2		 add	 eax, edx
  006c3	b9 04 00 00 00	 mov	 ecx, 4
  006c8	6b d1 00	 imul	 edx, ecx, 0
  006cb	8b 8c 15 e4 fe
	ff ff		 mov	 ecx, DWORD PTR _W$[ebp+edx]
  006d2	8d 94 08 98 2f
	8a 42		 lea	 edx, DWORD PTR [eax+ecx+1116352408]
  006d9	89 55 f8	 mov	 DWORD PTR _temp1$[ebp], edx
  006dc	8b 85 d8 fe ff
	ff		 mov	 eax, DWORD PTR _A$[ebp]
  006e2	c1 e8 02	 shr	 eax, 2
  006e5	8b 8d d8 fe ff
	ff		 mov	 ecx, DWORD PTR _A$[ebp]
  006eb	c1 e1 1e	 shl	 ecx, 30			; 0000001eH
  006ee	0b c1		 or	 eax, ecx
  006f0	8b 95 d8 fe ff
	ff		 mov	 edx, DWORD PTR _A$[ebp]
  006f6	c1 ea 0d	 shr	 edx, 13			; 0000000dH
  006f9	8b 8d d8 fe ff
	ff		 mov	 ecx, DWORD PTR _A$[ebp]
  006ff	c1 e1 13	 shl	 ecx, 19			; 00000013H
  00702	0b d1		 or	 edx, ecx
  00704	33 c2		 xor	 eax, edx
  00706	8b 95 d8 fe ff
	ff		 mov	 edx, DWORD PTR _A$[ebp]
  0070c	c1 ea 16	 shr	 edx, 22			; 00000016H
  0070f	8b 8d d8 fe ff
	ff		 mov	 ecx, DWORD PTR _A$[ebp]
  00715	c1 e1 0a	 shl	 ecx, 10			; 0000000aH
  00718	0b d1		 or	 edx, ecx
  0071a	33 c2		 xor	 eax, edx
  0071c	8b 95 d8 fe ff
	ff		 mov	 edx, DWORD PTR _A$[ebp]
  00722	23 95 cc fe ff
	ff		 and	 edx, DWORD PTR _B$[ebp]
  00728	8b 8d d8 fe ff
	ff		 mov	 ecx, DWORD PTR _A$[ebp]
  0072e	0b 8d cc fe ff
	ff		 or	 ecx, DWORD PTR _B$[ebp]
  00734	23 8d c0 fe ff
	ff		 and	 ecx, DWORD PTR _C$[ebp]
  0073a	0b d1		 or	 edx, ecx
  0073c	03 c2		 add	 eax, edx
  0073e	89 45 ec	 mov	 DWORD PTR _temp2$[ebp], eax
  00741	8b 85 b4 fe ff
	ff		 mov	 eax, DWORD PTR _D$[ebp]
  00747	03 45 f8	 add	 eax, DWORD PTR _temp1$[ebp]
  0074a	89 85 b4 fe ff
	ff		 mov	 DWORD PTR _D$[ebp], eax
  00750	8b 45 f8	 mov	 eax, DWORD PTR _temp1$[ebp]
  00753	03 45 ec	 add	 eax, DWORD PTR _temp2$[ebp]
  00756	89 85 84 fe ff
	ff		 mov	 DWORD PTR _H$[ebp], eax

; 115  :     P( H, A, B, C, D, E, F, G, W[ 1], 0x71374491 );

  0075c	8b 85 b4 fe ff
	ff		 mov	 eax, DWORD PTR _D$[ebp]
  00762	c1 e8 06	 shr	 eax, 6
  00765	8b 8d b4 fe ff
	ff		 mov	 ecx, DWORD PTR _D$[ebp]
  0076b	c1 e1 1a	 shl	 ecx, 26			; 0000001aH
  0076e	0b c1		 or	 eax, ecx
  00770	8b 95 b4 fe ff
	ff		 mov	 edx, DWORD PTR _D$[ebp]
  00776	c1 ea 0b	 shr	 edx, 11			; 0000000bH
  00779	8b 8d b4 fe ff
	ff		 mov	 ecx, DWORD PTR _D$[ebp]
  0077f	c1 e1 15	 shl	 ecx, 21			; 00000015H
  00782	0b d1		 or	 edx, ecx
  00784	33 c2		 xor	 eax, edx
  00786	8b 95 b4 fe ff
	ff		 mov	 edx, DWORD PTR _D$[ebp]
  0078c	c1 ea 19	 shr	 edx, 25			; 00000019H
  0078f	8b 8d b4 fe ff
	ff		 mov	 ecx, DWORD PTR _D$[ebp]
  00795	c1 e1 07	 shl	 ecx, 7
  00798	0b d1		 or	 edx, ecx
  0079a	33 c2		 xor	 eax, edx
  0079c	03 85 90 fe ff
	ff		 add	 eax, DWORD PTR _G$[ebp]
  007a2	8b 95 a8 fe ff
	ff		 mov	 edx, DWORD PTR _E$[ebp]
  007a8	33 95 9c fe ff
	ff		 xor	 edx, DWORD PTR _F$[ebp]
  007ae	23 95 b4 fe ff
	ff		 and	 edx, DWORD PTR _D$[ebp]
  007b4	33 95 9c fe ff
	ff		 xor	 edx, DWORD PTR _F$[ebp]
  007ba	03 c2		 add	 eax, edx
  007bc	b9 04 00 00 00	 mov	 ecx, 4
  007c1	c1 e1 00	 shl	 ecx, 0
  007c4	8b 94 0d e4 fe
	ff ff		 mov	 edx, DWORD PTR _W$[ebp+ecx]
  007cb	8d 84 10 91 44
	37 71		 lea	 eax, DWORD PTR [eax+edx+1899447441]
  007d2	89 45 f8	 mov	 DWORD PTR _temp1$[ebp], eax
  007d5	8b 85 84 fe ff
	ff		 mov	 eax, DWORD PTR _H$[ebp]
  007db	c1 e8 02	 shr	 eax, 2
  007de	8b 8d 84 fe ff
	ff		 mov	 ecx, DWORD PTR _H$[ebp]
  007e4	c1 e1 1e	 shl	 ecx, 30			; 0000001eH
  007e7	0b c1		 or	 eax, ecx
  007e9	8b 95 84 fe ff
	ff		 mov	 edx, DWORD PTR _H$[ebp]
  007ef	c1 ea 0d	 shr	 edx, 13			; 0000000dH
  007f2	8b 8d 84 fe ff
	ff		 mov	 ecx, DWORD PTR _H$[ebp]
  007f8	c1 e1 13	 shl	 ecx, 19			; 00000013H
  007fb	0b d1		 or	 edx, ecx
  007fd	33 c2		 xor	 eax, edx
  007ff	8b 95 84 fe ff
	ff		 mov	 edx, DWORD PTR _H$[ebp]
  00805	c1 ea 16	 shr	 edx, 22			; 00000016H
  00808	8b 8d 84 fe ff
	ff		 mov	 ecx, DWORD PTR _H$[ebp]
  0080e	c1 e1 0a	 shl	 ecx, 10			; 0000000aH
  00811	0b d1		 or	 edx, ecx
  00813	33 c2		 xor	 eax, edx
  00815	8b 95 84 fe ff
	ff		 mov	 edx, DWORD PTR _H$[ebp]
  0081b	23 95 d8 fe ff
	ff		 and	 edx, DWORD PTR _A$[ebp]
  00821	8b 8d 84 fe ff
	ff		 mov	 ecx, DWORD PTR _H$[ebp]
  00827	0b 8d d8 fe ff
	ff		 or	 ecx, DWORD PTR _A$[ebp]
  0082d	23 8d cc fe ff
	ff		 and	 ecx, DWORD PTR _B$[ebp]
  00833	0b d1		 or	 edx, ecx
  00835	03 c2		 add	 eax, edx
  00837	89 45 ec	 mov	 DWORD PTR _temp2$[ebp], eax
  0083a	8b 85 c0 fe ff
	ff		 mov	 eax, DWORD PTR _C$[ebp]
  00840	03 45 f8	 add	 eax, DWORD PTR _temp1$[ebp]
  00843	89 85 c0 fe ff
	ff		 mov	 DWORD PTR _C$[ebp], eax
  00849	8b 45 f8	 mov	 eax, DWORD PTR _temp1$[ebp]
  0084c	03 45 ec	 add	 eax, DWORD PTR _temp2$[ebp]
  0084f	89 85 90 fe ff
	ff		 mov	 DWORD PTR _G$[ebp], eax

; 116  :     P( G, H, A, B, C, D, E, F, W[ 2], 0xB5C0FBCF );

  00855	8b 85 c0 fe ff
	ff		 mov	 eax, DWORD PTR _C$[ebp]
  0085b	c1 e8 06	 shr	 eax, 6
  0085e	8b 8d c0 fe ff
	ff		 mov	 ecx, DWORD PTR _C$[ebp]
  00864	c1 e1 1a	 shl	 ecx, 26			; 0000001aH
  00867	0b c1		 or	 eax, ecx
  00869	8b 95 c0 fe ff
	ff		 mov	 edx, DWORD PTR _C$[ebp]
  0086f	c1 ea 0b	 shr	 edx, 11			; 0000000bH
  00872	8b 8d c0 fe ff
	ff		 mov	 ecx, DWORD PTR _C$[ebp]
  00878	c1 e1 15	 shl	 ecx, 21			; 00000015H
  0087b	0b d1		 or	 edx, ecx
  0087d	33 c2		 xor	 eax, edx
  0087f	8b 95 c0 fe ff
	ff		 mov	 edx, DWORD PTR _C$[ebp]
  00885	c1 ea 19	 shr	 edx, 25			; 00000019H
  00888	8b 8d c0 fe ff
	ff		 mov	 ecx, DWORD PTR _C$[ebp]
  0088e	c1 e1 07	 shl	 ecx, 7
  00891	0b d1		 or	 edx, ecx
  00893	33 c2		 xor	 eax, edx
  00895	03 85 9c fe ff
	ff		 add	 eax, DWORD PTR _F$[ebp]
  0089b	8b 95 b4 fe ff
	ff		 mov	 edx, DWORD PTR _D$[ebp]
  008a1	33 95 a8 fe ff
	ff		 xor	 edx, DWORD PTR _E$[ebp]
  008a7	23 95 c0 fe ff
	ff		 and	 edx, DWORD PTR _C$[ebp]
  008ad	33 95 a8 fe ff
	ff		 xor	 edx, DWORD PTR _E$[ebp]
  008b3	03 c2		 add	 eax, edx
  008b5	b9 04 00 00 00	 mov	 ecx, 4
  008ba	d1 e1		 shl	 ecx, 1
  008bc	8b 94 0d e4 fe
	ff ff		 mov	 edx, DWORD PTR _W$[ebp+ecx]
  008c3	8d 84 10 cf fb
	c0 b5		 lea	 eax, DWORD PTR [eax+edx-1245643825]
  008ca	89 45 f8	 mov	 DWORD PTR _temp1$[ebp], eax
  008cd	8b 85 90 fe ff
	ff		 mov	 eax, DWORD PTR _G$[ebp]
  008d3	c1 e8 02	 shr	 eax, 2
  008d6	8b 8d 90 fe ff
	ff		 mov	 ecx, DWORD PTR _G$[ebp]
  008dc	c1 e1 1e	 shl	 ecx, 30			; 0000001eH
  008df	0b c1		 or	 eax, ecx
  008e1	8b 95 90 fe ff
	ff		 mov	 edx, DWORD PTR _G$[ebp]
  008e7	c1 ea 0d	 shr	 edx, 13			; 0000000dH
  008ea	8b 8d 90 fe ff
	ff		 mov	 ecx, DWORD PTR _G$[ebp]
  008f0	c1 e1 13	 shl	 ecx, 19			; 00000013H
  008f3	0b d1		 or	 edx, ecx
  008f5	33 c2		 xor	 eax, edx
  008f7	8b 95 90 fe ff
	ff		 mov	 edx, DWORD PTR _G$[ebp]
  008fd	c1 ea 16	 shr	 edx, 22			; 00000016H
  00900	8b 8d 90 fe ff
	ff		 mov	 ecx, DWORD PTR _G$[ebp]
  00906	c1 e1 0a	 shl	 ecx, 10			; 0000000aH
  00909	0b d1		 or	 edx, ecx
  0090b	33 c2		 xor	 eax, edx
  0090d	8b 95 90 fe ff
	ff		 mov	 edx, DWORD PTR _G$[ebp]
  00913	23 95 84 fe ff
	ff		 and	 edx, DWORD PTR _H$[ebp]
  00919	8b 8d 90 fe ff
	ff		 mov	 ecx, DWORD PTR _G$[ebp]
  0091f	0b 8d 84 fe ff
	ff		 or	 ecx, DWORD PTR _H$[ebp]
  00925	23 8d d8 fe ff
	ff		 and	 ecx, DWORD PTR _A$[ebp]
  0092b	0b d1		 or	 edx, ecx
  0092d	03 c2		 add	 eax, edx
  0092f	89 45 ec	 mov	 DWORD PTR _temp2$[ebp], eax
  00932	8b 85 cc fe ff
	ff		 mov	 eax, DWORD PTR _B$[ebp]
  00938	03 45 f8	 add	 eax, DWORD PTR _temp1$[ebp]
  0093b	89 85 cc fe ff
	ff		 mov	 DWORD PTR _B$[ebp], eax
  00941	8b 45 f8	 mov	 eax, DWORD PTR _temp1$[ebp]
  00944	03 45 ec	 add	 eax, DWORD PTR _temp2$[ebp]
  00947	89 85 9c fe ff
	ff		 mov	 DWORD PTR _F$[ebp], eax

; 117  :     P( F, G, H, A, B, C, D, E, W[ 3], 0xE9B5DBA5 );

  0094d	8b 85 cc fe ff
	ff		 mov	 eax, DWORD PTR _B$[ebp]
  00953	c1 e8 06	 shr	 eax, 6
  00956	8b 8d cc fe ff
	ff		 mov	 ecx, DWORD PTR _B$[ebp]
  0095c	c1 e1 1a	 shl	 ecx, 26			; 0000001aH
  0095f	0b c1		 or	 eax, ecx
  00961	8b 95 cc fe ff
	ff		 mov	 edx, DWORD PTR _B$[ebp]
  00967	c1 ea 0b	 shr	 edx, 11			; 0000000bH
  0096a	8b 8d cc fe ff
	ff		 mov	 ecx, DWORD PTR _B$[ebp]
  00970	c1 e1 15	 shl	 ecx, 21			; 00000015H
  00973	0b d1		 or	 edx, ecx
  00975	33 c2		 xor	 eax, edx
  00977	8b 95 cc fe ff
	ff		 mov	 edx, DWORD PTR _B$[ebp]
  0097d	c1 ea 19	 shr	 edx, 25			; 00000019H
  00980	8b 8d cc fe ff
	ff		 mov	 ecx, DWORD PTR _B$[ebp]
  00986	c1 e1 07	 shl	 ecx, 7
  00989	0b d1		 or	 edx, ecx
  0098b	33 c2		 xor	 eax, edx
  0098d	03 85 a8 fe ff
	ff		 add	 eax, DWORD PTR _E$[ebp]
  00993	8b 95 c0 fe ff
	ff		 mov	 edx, DWORD PTR _C$[ebp]
  00999	33 95 b4 fe ff
	ff		 xor	 edx, DWORD PTR _D$[ebp]
  0099f	23 95 cc fe ff
	ff		 and	 edx, DWORD PTR _B$[ebp]
  009a5	33 95 b4 fe ff
	ff		 xor	 edx, DWORD PTR _D$[ebp]
  009ab	03 c2		 add	 eax, edx
  009ad	b9 04 00 00 00	 mov	 ecx, 4
  009b2	6b d1 03	 imul	 edx, ecx, 3
  009b5	8b 8c 15 e4 fe
	ff ff		 mov	 ecx, DWORD PTR _W$[ebp+edx]
  009bc	8d 94 08 a5 db
	b5 e9		 lea	 edx, DWORD PTR [eax+ecx-373957723]
  009c3	89 55 f8	 mov	 DWORD PTR _temp1$[ebp], edx
  009c6	8b 85 9c fe ff
	ff		 mov	 eax, DWORD PTR _F$[ebp]
  009cc	c1 e8 02	 shr	 eax, 2
  009cf	8b 8d 9c fe ff
	ff		 mov	 ecx, DWORD PTR _F$[ebp]
  009d5	c1 e1 1e	 shl	 ecx, 30			; 0000001eH
  009d8	0b c1		 or	 eax, ecx
  009da	8b 95 9c fe ff
	ff		 mov	 edx, DWORD PTR _F$[ebp]
  009e0	c1 ea 0d	 shr	 edx, 13			; 0000000dH
  009e3	8b 8d 9c fe ff
	ff		 mov	 ecx, DWORD PTR _F$[ebp]
  009e9	c1 e1 13	 shl	 ecx, 19			; 00000013H
  009ec	0b d1		 or	 edx, ecx
  009ee	33 c2		 xor	 eax, edx
  009f0	8b 95 9c fe ff
	ff		 mov	 edx, DWORD PTR _F$[ebp]
  009f6	c1 ea 16	 shr	 edx, 22			; 00000016H
  009f9	8b 8d 9c fe ff
	ff		 mov	 ecx, DWORD PTR _F$[ebp]
  009ff	c1 e1 0a	 shl	 ecx, 10			; 0000000aH
  00a02	0b d1		 or	 edx, ecx
  00a04	33 c2		 xor	 eax, edx
  00a06	8b 95 9c fe ff
	ff		 mov	 edx, DWORD PTR _F$[ebp]
  00a0c	23 95 90 fe ff
	ff		 and	 edx, DWORD PTR _G$[ebp]
  00a12	8b 8d 9c fe ff
	ff		 mov	 ecx, DWORD PTR _F$[ebp]
  00a18	0b 8d 90 fe ff
	ff		 or	 ecx, DWORD PTR _G$[ebp]
  00a1e	23 8d 84 fe ff
	ff		 and	 ecx, DWORD PTR _H$[ebp]
  00a24	0b d1		 or	 edx, ecx
  00a26	03 c2		 add	 eax, edx
  00a28	89 45 ec	 mov	 DWORD PTR _temp2$[ebp], eax
  00a2b	8b 85 d8 fe ff
	ff		 mov	 eax, DWORD PTR _A$[ebp]
  00a31	03 45 f8	 add	 eax, DWORD PTR _temp1$[ebp]
  00a34	89 85 d8 fe ff
	ff		 mov	 DWORD PTR _A$[ebp], eax
  00a3a	8b 45 f8	 mov	 eax, DWORD PTR _temp1$[ebp]
  00a3d	03 45 ec	 add	 eax, DWORD PTR _temp2$[ebp]
  00a40	89 85 a8 fe ff
	ff		 mov	 DWORD PTR _E$[ebp], eax

; 118  :     P( E, F, G, H, A, B, C, D, W[ 4], 0x3956C25B );

  00a46	8b 85 d8 fe ff
	ff		 mov	 eax, DWORD PTR _A$[ebp]
  00a4c	c1 e8 06	 shr	 eax, 6
  00a4f	8b 8d d8 fe ff
	ff		 mov	 ecx, DWORD PTR _A$[ebp]
  00a55	c1 e1 1a	 shl	 ecx, 26			; 0000001aH
  00a58	0b c1		 or	 eax, ecx
  00a5a	8b 95 d8 fe ff
	ff		 mov	 edx, DWORD PTR _A$[ebp]
  00a60	c1 ea 0b	 shr	 edx, 11			; 0000000bH
  00a63	8b 8d d8 fe ff
	ff		 mov	 ecx, DWORD PTR _A$[ebp]
  00a69	c1 e1 15	 shl	 ecx, 21			; 00000015H
  00a6c	0b d1		 or	 edx, ecx
  00a6e	33 c2		 xor	 eax, edx
  00a70	8b 95 d8 fe ff
	ff		 mov	 edx, DWORD PTR _A$[ebp]
  00a76	c1 ea 19	 shr	 edx, 25			; 00000019H
  00a79	8b 8d d8 fe ff
	ff		 mov	 ecx, DWORD PTR _A$[ebp]
  00a7f	c1 e1 07	 shl	 ecx, 7
  00a82	0b d1		 or	 edx, ecx
  00a84	33 c2		 xor	 eax, edx
  00a86	03 85 b4 fe ff
	ff		 add	 eax, DWORD PTR _D$[ebp]
  00a8c	8b 95 cc fe ff
	ff		 mov	 edx, DWORD PTR _B$[ebp]
  00a92	33 95 c0 fe ff
	ff		 xor	 edx, DWORD PTR _C$[ebp]
  00a98	23 95 d8 fe ff
	ff		 and	 edx, DWORD PTR _A$[ebp]
  00a9e	33 95 c0 fe ff
	ff		 xor	 edx, DWORD PTR _C$[ebp]
  00aa4	03 c2		 add	 eax, edx
  00aa6	b9 04 00 00 00	 mov	 ecx, 4
  00aab	c1 e1 02	 shl	 ecx, 2
  00aae	8b 94 0d e4 fe
	ff ff		 mov	 edx, DWORD PTR _W$[ebp+ecx]
  00ab5	8d 84 10 5b c2
	56 39		 lea	 eax, DWORD PTR [eax+edx+961987163]
  00abc	89 45 f8	 mov	 DWORD PTR _temp1$[ebp], eax
  00abf	8b 85 a8 fe ff
	ff		 mov	 eax, DWORD PTR _E$[ebp]
  00ac5	c1 e8 02	 shr	 eax, 2
  00ac8	8b 8d a8 fe ff
	ff		 mov	 ecx, DWORD PTR _E$[ebp]
  00ace	c1 e1 1e	 shl	 ecx, 30			; 0000001eH
  00ad1	0b c1		 or	 eax, ecx
  00ad3	8b 95 a8 fe ff
	ff		 mov	 edx, DWORD PTR _E$[ebp]
  00ad9	c1 ea 0d	 shr	 edx, 13			; 0000000dH
  00adc	8b 8d a8 fe ff
	ff		 mov	 ecx, DWORD PTR _E$[ebp]
  00ae2	c1 e1 13	 shl	 ecx, 19			; 00000013H
  00ae5	0b d1		 or	 edx, ecx
  00ae7	33 c2		 xor	 eax, edx
  00ae9	8b 95 a8 fe ff
	ff		 mov	 edx, DWORD PTR _E$[ebp]
  00aef	c1 ea 16	 shr	 edx, 22			; 00000016H
  00af2	8b 8d a8 fe ff
	ff		 mov	 ecx, DWORD PTR _E$[ebp]
  00af8	c1 e1 0a	 shl	 ecx, 10			; 0000000aH
  00afb	0b d1		 or	 edx, ecx
  00afd	33 c2		 xor	 eax, edx
  00aff	8b 95 a8 fe ff
	ff		 mov	 edx, DWORD PTR _E$[ebp]
  00b05	23 95 9c fe ff
	ff		 and	 edx, DWORD PTR _F$[ebp]
  00b0b	8b 8d a8 fe ff
	ff		 mov	 ecx, DWORD PTR _E$[ebp]
  00b11	0b 8d 9c fe ff
	ff		 or	 ecx, DWORD PTR _F$[ebp]
  00b17	23 8d 90 fe ff
	ff		 and	 ecx, DWORD PTR _G$[ebp]
  00b1d	0b d1		 or	 edx, ecx
  00b1f	03 c2		 add	 eax, edx
  00b21	89 45 ec	 mov	 DWORD PTR _temp2$[ebp], eax
  00b24	8b 85 84 fe ff
	ff		 mov	 eax, DWORD PTR _H$[ebp]
  00b2a	03 45 f8	 add	 eax, DWORD PTR _temp1$[ebp]
  00b2d	89 85 84 fe ff
	ff		 mov	 DWORD PTR _H$[ebp], eax
  00b33	8b 45 f8	 mov	 eax, DWORD PTR _temp1$[ebp]
  00b36	03 45 ec	 add	 eax, DWORD PTR _temp2$[ebp]
  00b39	89 85 b4 fe ff
	ff		 mov	 DWORD PTR _D$[ebp], eax

; 119  :     P( D, E, F, G, H, A, B, C, W[ 5], 0x59F111F1 );

  00b3f	8b 85 84 fe ff
	ff		 mov	 eax, DWORD PTR _H$[ebp]
  00b45	c1 e8 06	 shr	 eax, 6
  00b48	8b 8d 84 fe ff
	ff		 mov	 ecx, DWORD PTR _H$[ebp]
  00b4e	c1 e1 1a	 shl	 ecx, 26			; 0000001aH
  00b51	0b c1		 or	 eax, ecx
  00b53	8b 95 84 fe ff
	ff		 mov	 edx, DWORD PTR _H$[ebp]
  00b59	c1 ea 0b	 shr	 edx, 11			; 0000000bH
  00b5c	8b 8d 84 fe ff
	ff		 mov	 ecx, DWORD PTR _H$[ebp]
  00b62	c1 e1 15	 shl	 ecx, 21			; 00000015H
  00b65	0b d1		 or	 edx, ecx
  00b67	33 c2		 xor	 eax, edx
  00b69	8b 95 84 fe ff
	ff		 mov	 edx, DWORD PTR _H$[ebp]
  00b6f	c1 ea 19	 shr	 edx, 25			; 00000019H
  00b72	8b 8d 84 fe ff
	ff		 mov	 ecx, DWORD PTR _H$[ebp]
  00b78	c1 e1 07	 shl	 ecx, 7
  00b7b	0b d1		 or	 edx, ecx
  00b7d	33 c2		 xor	 eax, edx
  00b7f	03 85 c0 fe ff
	ff		 add	 eax, DWORD PTR _C$[ebp]
  00b85	8b 95 d8 fe ff
	ff		 mov	 edx, DWORD PTR _A$[ebp]
  00b8b	33 95 cc fe ff
	ff		 xor	 edx, DWORD PTR _B$[ebp]
  00b91	23 95 84 fe ff
	ff		 and	 edx, DWORD PTR _H$[ebp]
  00b97	33 95 cc fe ff
	ff		 xor	 edx, DWORD PTR _B$[ebp]
  00b9d	03 c2		 add	 eax, edx
  00b9f	b9 04 00 00 00	 mov	 ecx, 4
  00ba4	6b d1 05	 imul	 edx, ecx, 5
  00ba7	8b 8c 15 e4 fe
	ff ff		 mov	 ecx, DWORD PTR _W$[ebp+edx]
  00bae	8d 94 08 f1 11
	f1 59		 lea	 edx, DWORD PTR [eax+ecx+1508970993]
  00bb5	89 55 f8	 mov	 DWORD PTR _temp1$[ebp], edx
  00bb8	8b 85 b4 fe ff
	ff		 mov	 eax, DWORD PTR _D$[ebp]
  00bbe	c1 e8 02	 shr	 eax, 2
  00bc1	8b 8d b4 fe ff
	ff		 mov	 ecx, DWORD PTR _D$[ebp]
  00bc7	c1 e1 1e	 shl	 ecx, 30			; 0000001eH
  00bca	0b c1		 or	 eax, ecx
  00bcc	8b 95 b4 fe ff
	ff		 mov	 edx, DWORD PTR _D$[ebp]
  00bd2	c1 ea 0d	 shr	 edx, 13			; 0000000dH
  00bd5	8b 8d b4 fe ff
	ff		 mov	 ecx, DWORD PTR _D$[ebp]
  00bdb	c1 e1 13	 shl	 ecx, 19			; 00000013H
  00bde	0b d1		 or	 edx, ecx
  00be0	33 c2		 xor	 eax, edx
  00be2	8b 95 b4 fe ff
	ff		 mov	 edx, DWORD PTR _D$[ebp]
  00be8	c1 ea 16	 shr	 edx, 22			; 00000016H
  00beb	8b 8d b4 fe ff
	ff		 mov	 ecx, DWORD PTR _D$[ebp]
  00bf1	c1 e1 0a	 shl	 ecx, 10			; 0000000aH
  00bf4	0b d1		 or	 edx, ecx
  00bf6	33 c2		 xor	 eax, edx
  00bf8	8b 95 b4 fe ff
	ff		 mov	 edx, DWORD PTR _D$[ebp]
  00bfe	23 95 a8 fe ff
	ff		 and	 edx, DWORD PTR _E$[ebp]
  00c04	8b 8d b4 fe ff
	ff		 mov	 ecx, DWORD PTR _D$[ebp]
  00c0a	0b 8d a8 fe ff
	ff		 or	 ecx, DWORD PTR _E$[ebp]
  00c10	23 8d 9c fe ff
	ff		 and	 ecx, DWORD PTR _F$[ebp]
  00c16	0b d1		 or	 edx, ecx
  00c18	03 c2		 add	 eax, edx
  00c1a	89 45 ec	 mov	 DWORD PTR _temp2$[ebp], eax
  00c1d	8b 85 90 fe ff
	ff		 mov	 eax, DWORD PTR _G$[ebp]
  00c23	03 45 f8	 add	 eax, DWORD PTR _temp1$[ebp]
  00c26	89 85 90 fe ff
	ff		 mov	 DWORD PTR _G$[ebp], eax
  00c2c	8b 45 f8	 mov	 eax, DWORD PTR _temp1$[ebp]
  00c2f	03 45 ec	 add	 eax, DWORD PTR _temp2$[ebp]
  00c32	89 85 c0 fe ff
	ff		 mov	 DWORD PTR _C$[ebp], eax

; 120  :     P( C, D, E, F, G, H, A, B, W[ 6], 0x923F82A4 );

  00c38	8b 85 90 fe ff
	ff		 mov	 eax, DWORD PTR _G$[ebp]
  00c3e	c1 e8 06	 shr	 eax, 6
  00c41	8b 8d 90 fe ff
	ff		 mov	 ecx, DWORD PTR _G$[ebp]
  00c47	c1 e1 1a	 shl	 ecx, 26			; 0000001aH
  00c4a	0b c1		 or	 eax, ecx
  00c4c	8b 95 90 fe ff
	ff		 mov	 edx, DWORD PTR _G$[ebp]
  00c52	c1 ea 0b	 shr	 edx, 11			; 0000000bH
  00c55	8b 8d 90 fe ff
	ff		 mov	 ecx, DWORD PTR _G$[ebp]
  00c5b	c1 e1 15	 shl	 ecx, 21			; 00000015H
  00c5e	0b d1		 or	 edx, ecx
  00c60	33 c2		 xor	 eax, edx
  00c62	8b 95 90 fe ff
	ff		 mov	 edx, DWORD PTR _G$[ebp]
  00c68	c1 ea 19	 shr	 edx, 25			; 00000019H
  00c6b	8b 8d 90 fe ff
	ff		 mov	 ecx, DWORD PTR _G$[ebp]
  00c71	c1 e1 07	 shl	 ecx, 7
  00c74	0b d1		 or	 edx, ecx
  00c76	33 c2		 xor	 eax, edx
  00c78	03 85 cc fe ff
	ff		 add	 eax, DWORD PTR _B$[ebp]
  00c7e	8b 95 84 fe ff
	ff		 mov	 edx, DWORD PTR _H$[ebp]
  00c84	33 95 d8 fe ff
	ff		 xor	 edx, DWORD PTR _A$[ebp]
  00c8a	23 95 90 fe ff
	ff		 and	 edx, DWORD PTR _G$[ebp]
  00c90	33 95 d8 fe ff
	ff		 xor	 edx, DWORD PTR _A$[ebp]
  00c96	03 c2		 add	 eax, edx
  00c98	b9 04 00 00 00	 mov	 ecx, 4
  00c9d	6b d1 06	 imul	 edx, ecx, 6
  00ca0	8b 8c 15 e4 fe
	ff ff		 mov	 ecx, DWORD PTR _W$[ebp+edx]
  00ca7	8d 94 08 a4 82
	3f 92		 lea	 edx, DWORD PTR [eax+ecx-1841331548]
  00cae	89 55 f8	 mov	 DWORD PTR _temp1$[ebp], edx
  00cb1	8b 85 c0 fe ff
	ff		 mov	 eax, DWORD PTR _C$[ebp]
  00cb7	c1 e8 02	 shr	 eax, 2
  00cba	8b 8d c0 fe ff
	ff		 mov	 ecx, DWORD PTR _C$[ebp]
  00cc0	c1 e1 1e	 shl	 ecx, 30			; 0000001eH
  00cc3	0b c1		 or	 eax, ecx
  00cc5	8b 95 c0 fe ff
	ff		 mov	 edx, DWORD PTR _C$[ebp]
  00ccb	c1 ea 0d	 shr	 edx, 13			; 0000000dH
  00cce	8b 8d c0 fe ff
	ff		 mov	 ecx, DWORD PTR _C$[ebp]
  00cd4	c1 e1 13	 shl	 ecx, 19			; 00000013H
  00cd7	0b d1		 or	 edx, ecx
  00cd9	33 c2		 xor	 eax, edx
  00cdb	8b 95 c0 fe ff
	ff		 mov	 edx, DWORD PTR _C$[ebp]
  00ce1	c1 ea 16	 shr	 edx, 22			; 00000016H
  00ce4	8b 8d c0 fe ff
	ff		 mov	 ecx, DWORD PTR _C$[ebp]
  00cea	c1 e1 0a	 shl	 ecx, 10			; 0000000aH
  00ced	0b d1		 or	 edx, ecx
  00cef	33 c2		 xor	 eax, edx
  00cf1	8b 95 c0 fe ff
	ff		 mov	 edx, DWORD PTR _C$[ebp]
  00cf7	23 95 b4 fe ff
	ff		 and	 edx, DWORD PTR _D$[ebp]
  00cfd	8b 8d c0 fe ff
	ff		 mov	 ecx, DWORD PTR _C$[ebp]
  00d03	0b 8d b4 fe ff
	ff		 or	 ecx, DWORD PTR _D$[ebp]
  00d09	23 8d a8 fe ff
	ff		 and	 ecx, DWORD PTR _E$[ebp]
  00d0f	0b d1		 or	 edx, ecx
  00d11	03 c2		 add	 eax, edx
  00d13	89 45 ec	 mov	 DWORD PTR _temp2$[ebp], eax
  00d16	8b 85 9c fe ff
	ff		 mov	 eax, DWORD PTR _F$[ebp]
  00d1c	03 45 f8	 add	 eax, DWORD PTR _temp1$[ebp]
  00d1f	89 85 9c fe ff
	ff		 mov	 DWORD PTR _F$[ebp], eax
  00d25	8b 45 f8	 mov	 eax, DWORD PTR _temp1$[ebp]
  00d28	03 45 ec	 add	 eax, DWORD PTR _temp2$[ebp]
  00d2b	89 85 cc fe ff
	ff		 mov	 DWORD PTR _B$[ebp], eax

; 121  :     P( B, C, D, E, F, G, H, A, W[ 7], 0xAB1C5ED5 );

  00d31	8b 85 9c fe ff
	ff		 mov	 eax, DWORD PTR _F$[ebp]
  00d37	c1 e8 06	 shr	 eax, 6
  00d3a	8b 8d 9c fe ff
	ff		 mov	 ecx, DWORD PTR _F$[ebp]
  00d40	c1 e1 1a	 shl	 ecx, 26			; 0000001aH
  00d43	0b c1		 or	 eax, ecx
  00d45	8b 95 9c fe ff
	ff		 mov	 edx, DWORD PTR _F$[ebp]
  00d4b	c1 ea 0b	 shr	 edx, 11			; 0000000bH
  00d4e	8b 8d 9c fe ff
	ff		 mov	 ecx, DWORD PTR _F$[ebp]
  00d54	c1 e1 15	 shl	 ecx, 21			; 00000015H
  00d57	0b d1		 or	 edx, ecx
  00d59	33 c2		 xor	 eax, edx
  00d5b	8b 95 9c fe ff
	ff		 mov	 edx, DWORD PTR _F$[ebp]
  00d61	c1 ea 19	 shr	 edx, 25			; 00000019H
  00d64	8b 8d 9c fe ff
	ff		 mov	 ecx, DWORD PTR _F$[ebp]
  00d6a	c1 e1 07	 shl	 ecx, 7
  00d6d	0b d1		 or	 edx, ecx
  00d6f	33 c2		 xor	 eax, edx
  00d71	03 85 d8 fe ff
	ff		 add	 eax, DWORD PTR _A$[ebp]
  00d77	8b 95 90 fe ff
	ff		 mov	 edx, DWORD PTR _G$[ebp]
  00d7d	33 95 84 fe ff
	ff		 xor	 edx, DWORD PTR _H$[ebp]
  00d83	23 95 9c fe ff
	ff		 and	 edx, DWORD PTR _F$[ebp]
  00d89	33 95 84 fe ff
	ff		 xor	 edx, DWORD PTR _H$[ebp]
  00d8f	03 c2		 add	 eax, edx
  00d91	b9 04 00 00 00	 mov	 ecx, 4
  00d96	6b d1 07	 imul	 edx, ecx, 7
  00d99	8b 8c 15 e4 fe
	ff ff		 mov	 ecx, DWORD PTR _W$[ebp+edx]
  00da0	8d 94 08 d5 5e
	1c ab		 lea	 edx, DWORD PTR [eax+ecx-1424204075]
  00da7	89 55 f8	 mov	 DWORD PTR _temp1$[ebp], edx
  00daa	8b 85 cc fe ff
	ff		 mov	 eax, DWORD PTR _B$[ebp]
  00db0	c1 e8 02	 shr	 eax, 2
  00db3	8b 8d cc fe ff
	ff		 mov	 ecx, DWORD PTR _B$[ebp]
  00db9	c1 e1 1e	 shl	 ecx, 30			; 0000001eH
  00dbc	0b c1		 or	 eax, ecx
  00dbe	8b 95 cc fe ff
	ff		 mov	 edx, DWORD PTR _B$[ebp]
  00dc4	c1 ea 0d	 shr	 edx, 13			; 0000000dH
  00dc7	8b 8d cc fe ff
	ff		 mov	 ecx, DWORD PTR _B$[ebp]
  00dcd	c1 e1 13	 shl	 ecx, 19			; 00000013H
  00dd0	0b d1		 or	 edx, ecx
  00dd2	33 c2		 xor	 eax, edx
  00dd4	8b 95 cc fe ff
	ff		 mov	 edx, DWORD PTR _B$[ebp]
  00dda	c1 ea 16	 shr	 edx, 22			; 00000016H
  00ddd	8b 8d cc fe ff
	ff		 mov	 ecx, DWORD PTR _B$[ebp]
  00de3	c1 e1 0a	 shl	 ecx, 10			; 0000000aH
  00de6	0b d1		 or	 edx, ecx
  00de8	33 c2		 xor	 eax, edx
  00dea	8b 95 cc fe ff
	ff		 mov	 edx, DWORD PTR _B$[ebp]
  00df0	23 95 c0 fe ff
	ff		 and	 edx, DWORD PTR _C$[ebp]
  00df6	8b 8d cc fe ff
	ff		 mov	 ecx, DWORD PTR _B$[ebp]
  00dfc	0b 8d c0 fe ff
	ff		 or	 ecx, DWORD PTR _C$[ebp]
  00e02	23 8d b4 fe ff
	ff		 and	 ecx, DWORD PTR _D$[ebp]
  00e08	0b d1		 or	 edx, ecx
  00e0a	03 c2		 add	 eax, edx
  00e0c	89 45 ec	 mov	 DWORD PTR _temp2$[ebp], eax
  00e0f	8b 85 a8 fe ff
	ff		 mov	 eax, DWORD PTR _E$[ebp]
  00e15	03 45 f8	 add	 eax, DWORD PTR _temp1$[ebp]
  00e18	89 85 a8 fe ff
	ff		 mov	 DWORD PTR _E$[ebp], eax
  00e1e	8b 45 f8	 mov	 eax, DWORD PTR _temp1$[ebp]
  00e21	03 45 ec	 add	 eax, DWORD PTR _temp2$[ebp]
  00e24	89 85 d8 fe ff
	ff		 mov	 DWORD PTR _A$[ebp], eax

; 122  :     P( A, B, C, D, E, F, G, H, W[ 8], 0xD807AA98 );

  00e2a	8b 85 a8 fe ff
	ff		 mov	 eax, DWORD PTR _E$[ebp]
  00e30	c1 e8 06	 shr	 eax, 6
  00e33	8b 8d a8 fe ff
	ff		 mov	 ecx, DWORD PTR _E$[ebp]
  00e39	c1 e1 1a	 shl	 ecx, 26			; 0000001aH
  00e3c	0b c1		 or	 eax, ecx
  00e3e	8b 95 a8 fe ff
	ff		 mov	 edx, DWORD PTR _E$[ebp]
  00e44	c1 ea 0b	 shr	 edx, 11			; 0000000bH
  00e47	8b 8d a8 fe ff
	ff		 mov	 ecx, DWORD PTR _E$[ebp]
  00e4d	c1 e1 15	 shl	 ecx, 21			; 00000015H
  00e50	0b d1		 or	 edx, ecx
  00e52	33 c2		 xor	 eax, edx
  00e54	8b 95 a8 fe ff
	ff		 mov	 edx, DWORD PTR _E$[ebp]
  00e5a	c1 ea 19	 shr	 edx, 25			; 00000019H
  00e5d	8b 8d a8 fe ff
	ff		 mov	 ecx, DWORD PTR _E$[ebp]
  00e63	c1 e1 07	 shl	 ecx, 7
  00e66	0b d1		 or	 edx, ecx
  00e68	33 c2		 xor	 eax, edx
  00e6a	03 85 84 fe ff
	ff		 add	 eax, DWORD PTR _H$[ebp]
  00e70	8b 95 9c fe ff
	ff		 mov	 edx, DWORD PTR _F$[ebp]
  00e76	33 95 90 fe ff
	ff		 xor	 edx, DWORD PTR _G$[ebp]
  00e7c	23 95 a8 fe ff
	ff		 and	 edx, DWORD PTR _E$[ebp]
  00e82	33 95 90 fe ff
	ff		 xor	 edx, DWORD PTR _G$[ebp]
  00e88	03 c2		 add	 eax, edx
  00e8a	b9 04 00 00 00	 mov	 ecx, 4
  00e8f	c1 e1 03	 shl	 ecx, 3
  00e92	8b 94 0d e4 fe
	ff ff		 mov	 edx, DWORD PTR _W$[ebp+ecx]
  00e99	8d 84 10 98 aa
	07 d8		 lea	 eax, DWORD PTR [eax+edx-670586216]
  00ea0	89 45 f8	 mov	 DWORD PTR _temp1$[ebp], eax
  00ea3	8b 85 d8 fe ff
	ff		 mov	 eax, DWORD PTR _A$[ebp]
  00ea9	c1 e8 02	 shr	 eax, 2
  00eac	8b 8d d8 fe ff
	ff		 mov	 ecx, DWORD PTR _A$[ebp]
  00eb2	c1 e1 1e	 shl	 ecx, 30			; 0000001eH
  00eb5	0b c1		 or	 eax, ecx
  00eb7	8b 95 d8 fe ff
	ff		 mov	 edx, DWORD PTR _A$[ebp]
  00ebd	c1 ea 0d	 shr	 edx, 13			; 0000000dH
  00ec0	8b 8d d8 fe ff
	ff		 mov	 ecx, DWORD PTR _A$[ebp]
  00ec6	c1 e1 13	 shl	 ecx, 19			; 00000013H
  00ec9	0b d1		 or	 edx, ecx
  00ecb	33 c2		 xor	 eax, edx
  00ecd	8b 95 d8 fe ff
	ff		 mov	 edx, DWORD PTR _A$[ebp]
  00ed3	c1 ea 16	 shr	 edx, 22			; 00000016H
  00ed6	8b 8d d8 fe ff
	ff		 mov	 ecx, DWORD PTR _A$[ebp]
  00edc	c1 e1 0a	 shl	 ecx, 10			; 0000000aH
  00edf	0b d1		 or	 edx, ecx
  00ee1	33 c2		 xor	 eax, edx
  00ee3	8b 95 d8 fe ff
	ff		 mov	 edx, DWORD PTR _A$[ebp]
  00ee9	23 95 cc fe ff
	ff		 and	 edx, DWORD PTR _B$[ebp]
  00eef	8b 8d d8 fe ff
	ff		 mov	 ecx, DWORD PTR _A$[ebp]
  00ef5	0b 8d cc fe ff
	ff		 or	 ecx, DWORD PTR _B$[ebp]
  00efb	23 8d c0 fe ff
	ff		 and	 ecx, DWORD PTR _C$[ebp]
  00f01	0b d1		 or	 edx, ecx
  00f03	03 c2		 add	 eax, edx
  00f05	89 45 ec	 mov	 DWORD PTR _temp2$[ebp], eax
  00f08	8b 85 b4 fe ff
	ff		 mov	 eax, DWORD PTR _D$[ebp]
  00f0e	03 45 f8	 add	 eax, DWORD PTR _temp1$[ebp]
  00f11	89 85 b4 fe ff
	ff		 mov	 DWORD PTR _D$[ebp], eax
  00f17	8b 45 f8	 mov	 eax, DWORD PTR _temp1$[ebp]
  00f1a	03 45 ec	 add	 eax, DWORD PTR _temp2$[ebp]
  00f1d	89 85 84 fe ff
	ff		 mov	 DWORD PTR _H$[ebp], eax

; 123  :     P( H, A, B, C, D, E, F, G, W[ 9], 0x12835B01 );

  00f23	8b 85 b4 fe ff
	ff		 mov	 eax, DWORD PTR _D$[ebp]
  00f29	c1 e8 06	 shr	 eax, 6
  00f2c	8b 8d b4 fe ff
	ff		 mov	 ecx, DWORD PTR _D$[ebp]
  00f32	c1 e1 1a	 shl	 ecx, 26			; 0000001aH
  00f35	0b c1		 or	 eax, ecx
  00f37	8b 95 b4 fe ff
	ff		 mov	 edx, DWORD PTR _D$[ebp]
  00f3d	c1 ea 0b	 shr	 edx, 11			; 0000000bH
  00f40	8b 8d b4 fe ff
	ff		 mov	 ecx, DWORD PTR _D$[ebp]
  00f46	c1 e1 15	 shl	 ecx, 21			; 00000015H
  00f49	0b d1		 or	 edx, ecx
  00f4b	33 c2		 xor	 eax, edx
  00f4d	8b 95 b4 fe ff
	ff		 mov	 edx, DWORD PTR _D$[ebp]
  00f53	c1 ea 19	 shr	 edx, 25			; 00000019H
  00f56	8b 8d b4 fe ff
	ff		 mov	 ecx, DWORD PTR _D$[ebp]
  00f5c	c1 e1 07	 shl	 ecx, 7
  00f5f	0b d1		 or	 edx, ecx
  00f61	33 c2		 xor	 eax, edx
  00f63	03 85 90 fe ff
	ff		 add	 eax, DWORD PTR _G$[ebp]
  00f69	8b 95 a8 fe ff
	ff		 mov	 edx, DWORD PTR _E$[ebp]
  00f6f	33 95 9c fe ff
	ff		 xor	 edx, DWORD PTR _F$[ebp]
  00f75	23 95 b4 fe ff
	ff		 and	 edx, DWORD PTR _D$[ebp]
  00f7b	33 95 9c fe ff
	ff		 xor	 edx, DWORD PTR _F$[ebp]
  00f81	03 c2		 add	 eax, edx
  00f83	b9 04 00 00 00	 mov	 ecx, 4
  00f88	6b d1 09	 imul	 edx, ecx, 9
  00f8b	8b 8c 15 e4 fe
	ff ff		 mov	 ecx, DWORD PTR _W$[ebp+edx]
  00f92	8d 94 08 01 5b
	83 12		 lea	 edx, DWORD PTR [eax+ecx+310598401]
  00f99	89 55 f8	 mov	 DWORD PTR _temp1$[ebp], edx
  00f9c	8b 85 84 fe ff
	ff		 mov	 eax, DWORD PTR _H$[ebp]
  00fa2	c1 e8 02	 shr	 eax, 2
  00fa5	8b 8d 84 fe ff
	ff		 mov	 ecx, DWORD PTR _H$[ebp]
  00fab	c1 e1 1e	 shl	 ecx, 30			; 0000001eH
  00fae	0b c1		 or	 eax, ecx
  00fb0	8b 95 84 fe ff
	ff		 mov	 edx, DWORD PTR _H$[ebp]
  00fb6	c1 ea 0d	 shr	 edx, 13			; 0000000dH
  00fb9	8b 8d 84 fe ff
	ff		 mov	 ecx, DWORD PTR _H$[ebp]
  00fbf	c1 e1 13	 shl	 ecx, 19			; 00000013H
  00fc2	0b d1		 or	 edx, ecx
  00fc4	33 c2		 xor	 eax, edx
  00fc6	8b 95 84 fe ff
	ff		 mov	 edx, DWORD PTR _H$[ebp]
  00fcc	c1 ea 16	 shr	 edx, 22			; 00000016H
  00fcf	8b 8d 84 fe ff
	ff		 mov	 ecx, DWORD PTR _H$[ebp]
  00fd5	c1 e1 0a	 shl	 ecx, 10			; 0000000aH
  00fd8	0b d1		 or	 edx, ecx
  00fda	33 c2		 xor	 eax, edx
  00fdc	8b 95 84 fe ff
	ff		 mov	 edx, DWORD PTR _H$[ebp]
  00fe2	23 95 d8 fe ff
	ff		 and	 edx, DWORD PTR _A$[ebp]
  00fe8	8b 8d 84 fe ff
	ff		 mov	 ecx, DWORD PTR _H$[ebp]
  00fee	0b 8d d8 fe ff
	ff		 or	 ecx, DWORD PTR _A$[ebp]
  00ff4	23 8d cc fe ff
	ff		 and	 ecx, DWORD PTR _B$[ebp]
  00ffa	0b d1		 or	 edx, ecx
  00ffc	03 c2		 add	 eax, edx
  00ffe	89 45 ec	 mov	 DWORD PTR _temp2$[ebp], eax
  01001	8b 85 c0 fe ff
	ff		 mov	 eax, DWORD PTR _C$[ebp]
  01007	03 45 f8	 add	 eax, DWORD PTR _temp1$[ebp]
  0100a	89 85 c0 fe ff
	ff		 mov	 DWORD PTR _C$[ebp], eax
  01010	8b 45 f8	 mov	 eax, DWORD PTR _temp1$[ebp]
  01013	03 45 ec	 add	 eax, DWORD PTR _temp2$[ebp]
  01016	89 85 90 fe ff
	ff		 mov	 DWORD PTR _G$[ebp], eax

; 124  :     P( G, H, A, B, C, D, E, F, W[10], 0x243185BE );

  0101c	8b 85 c0 fe ff
	ff		 mov	 eax, DWORD PTR _C$[ebp]
  01022	c1 e8 06	 shr	 eax, 6
  01025	8b 8d c0 fe ff
	ff		 mov	 ecx, DWORD PTR _C$[ebp]
  0102b	c1 e1 1a	 shl	 ecx, 26			; 0000001aH
  0102e	0b c1		 or	 eax, ecx
  01030	8b 95 c0 fe ff
	ff		 mov	 edx, DWORD PTR _C$[ebp]
  01036	c1 ea 0b	 shr	 edx, 11			; 0000000bH
  01039	8b 8d c0 fe ff
	ff		 mov	 ecx, DWORD PTR _C$[ebp]
  0103f	c1 e1 15	 shl	 ecx, 21			; 00000015H
  01042	0b d1		 or	 edx, ecx
  01044	33 c2		 xor	 eax, edx
  01046	8b 95 c0 fe ff
	ff		 mov	 edx, DWORD PTR _C$[ebp]
  0104c	c1 ea 19	 shr	 edx, 25			; 00000019H
  0104f	8b 8d c0 fe ff
	ff		 mov	 ecx, DWORD PTR _C$[ebp]
  01055	c1 e1 07	 shl	 ecx, 7
  01058	0b d1		 or	 edx, ecx
  0105a	33 c2		 xor	 eax, edx
  0105c	03 85 9c fe ff
	ff		 add	 eax, DWORD PTR _F$[ebp]
  01062	8b 95 b4 fe ff
	ff		 mov	 edx, DWORD PTR _D$[ebp]
  01068	33 95 a8 fe ff
	ff		 xor	 edx, DWORD PTR _E$[ebp]
  0106e	23 95 c0 fe ff
	ff		 and	 edx, DWORD PTR _C$[ebp]
  01074	33 95 a8 fe ff
	ff		 xor	 edx, DWORD PTR _E$[ebp]
  0107a	03 c2		 add	 eax, edx
  0107c	b9 04 00 00 00	 mov	 ecx, 4
  01081	6b d1 0a	 imul	 edx, ecx, 10
  01084	8b 8c 15 e4 fe
	ff ff		 mov	 ecx, DWORD PTR _W$[ebp+edx]
  0108b	8d 94 08 be 85
	31 24		 lea	 edx, DWORD PTR [eax+ecx+607225278]
  01092	89 55 f8	 mov	 DWORD PTR _temp1$[ebp], edx
  01095	8b 85 90 fe ff
	ff		 mov	 eax, DWORD PTR _G$[ebp]
  0109b	c1 e8 02	 shr	 eax, 2
  0109e	8b 8d 90 fe ff
	ff		 mov	 ecx, DWORD PTR _G$[ebp]
  010a4	c1 e1 1e	 shl	 ecx, 30			; 0000001eH
  010a7	0b c1		 or	 eax, ecx
  010a9	8b 95 90 fe ff
	ff		 mov	 edx, DWORD PTR _G$[ebp]
  010af	c1 ea 0d	 shr	 edx, 13			; 0000000dH
  010b2	8b 8d 90 fe ff
	ff		 mov	 ecx, DWORD PTR _G$[ebp]
  010b8	c1 e1 13	 shl	 ecx, 19			; 00000013H
  010bb	0b d1		 or	 edx, ecx
  010bd	33 c2		 xor	 eax, edx
  010bf	8b 95 90 fe ff
	ff		 mov	 edx, DWORD PTR _G$[ebp]
  010c5	c1 ea 16	 shr	 edx, 22			; 00000016H
  010c8	8b 8d 90 fe ff
	ff		 mov	 ecx, DWORD PTR _G$[ebp]
  010ce	c1 e1 0a	 shl	 ecx, 10			; 0000000aH
  010d1	0b d1		 or	 edx, ecx
  010d3	33 c2		 xor	 eax, edx
  010d5	8b 95 90 fe ff
	ff		 mov	 edx, DWORD PTR _G$[ebp]
  010db	23 95 84 fe ff
	ff		 and	 edx, DWORD PTR _H$[ebp]
  010e1	8b 8d 90 fe ff
	ff		 mov	 ecx, DWORD PTR _G$[ebp]
  010e7	0b 8d 84 fe ff
	ff		 or	 ecx, DWORD PTR _H$[ebp]
  010ed	23 8d d8 fe ff
	ff		 and	 ecx, DWORD PTR _A$[ebp]
  010f3	0b d1		 or	 edx, ecx
  010f5	03 c2		 add	 eax, edx
  010f7	89 45 ec	 mov	 DWORD PTR _temp2$[ebp], eax
  010fa	8b 85 cc fe ff
	ff		 mov	 eax, DWORD PTR _B$[ebp]
  01100	03 45 f8	 add	 eax, DWORD PTR _temp1$[ebp]
  01103	89 85 cc fe ff
	ff		 mov	 DWORD PTR _B$[ebp], eax
  01109	8b 45 f8	 mov	 eax, DWORD PTR _temp1$[ebp]
  0110c	03 45 ec	 add	 eax, DWORD PTR _temp2$[ebp]
  0110f	89 85 9c fe ff
	ff		 mov	 DWORD PTR _F$[ebp], eax

; 125  :     P( F, G, H, A, B, C, D, E, W[11], 0x550C7DC3 );

  01115	8b 85 cc fe ff
	ff		 mov	 eax, DWORD PTR _B$[ebp]
  0111b	c1 e8 06	 shr	 eax, 6
  0111e	8b 8d cc fe ff
	ff		 mov	 ecx, DWORD PTR _B$[ebp]
  01124	c1 e1 1a	 shl	 ecx, 26			; 0000001aH
  01127	0b c1		 or	 eax, ecx
  01129	8b 95 cc fe ff
	ff		 mov	 edx, DWORD PTR _B$[ebp]
  0112f	c1 ea 0b	 shr	 edx, 11			; 0000000bH
  01132	8b 8d cc fe ff
	ff		 mov	 ecx, DWORD PTR _B$[ebp]
  01138	c1 e1 15	 shl	 ecx, 21			; 00000015H
  0113b	0b d1		 or	 edx, ecx
  0113d	33 c2		 xor	 eax, edx
  0113f	8b 95 cc fe ff
	ff		 mov	 edx, DWORD PTR _B$[ebp]
  01145	c1 ea 19	 shr	 edx, 25			; 00000019H
  01148	8b 8d cc fe ff
	ff		 mov	 ecx, DWORD PTR _B$[ebp]
  0114e	c1 e1 07	 shl	 ecx, 7
  01151	0b d1		 or	 edx, ecx
  01153	33 c2		 xor	 eax, edx
  01155	03 85 a8 fe ff
	ff		 add	 eax, DWORD PTR _E$[ebp]
  0115b	8b 95 c0 fe ff
	ff		 mov	 edx, DWORD PTR _C$[ebp]
  01161	33 95 b4 fe ff
	ff		 xor	 edx, DWORD PTR _D$[ebp]
  01167	23 95 cc fe ff
	ff		 and	 edx, DWORD PTR _B$[ebp]
  0116d	33 95 b4 fe ff
	ff		 xor	 edx, DWORD PTR _D$[ebp]
  01173	03 c2		 add	 eax, edx
  01175	b9 04 00 00 00	 mov	 ecx, 4
  0117a	6b d1 0b	 imul	 edx, ecx, 11
  0117d	8b 8c 15 e4 fe
	ff ff		 mov	 ecx, DWORD PTR _W$[ebp+edx]
  01184	8d 94 08 c3 7d
	0c 55		 lea	 edx, DWORD PTR [eax+ecx+1426881987]
  0118b	89 55 f8	 mov	 DWORD PTR _temp1$[ebp], edx
  0118e	8b 85 9c fe ff
	ff		 mov	 eax, DWORD PTR _F$[ebp]
  01194	c1 e8 02	 shr	 eax, 2
  01197	8b 8d 9c fe ff
	ff		 mov	 ecx, DWORD PTR _F$[ebp]
  0119d	c1 e1 1e	 shl	 ecx, 30			; 0000001eH
  011a0	0b c1		 or	 eax, ecx
  011a2	8b 95 9c fe ff
	ff		 mov	 edx, DWORD PTR _F$[ebp]
  011a8	c1 ea 0d	 shr	 edx, 13			; 0000000dH
  011ab	8b 8d 9c fe ff
	ff		 mov	 ecx, DWORD PTR _F$[ebp]
  011b1	c1 e1 13	 shl	 ecx, 19			; 00000013H
  011b4	0b d1		 or	 edx, ecx
  011b6	33 c2		 xor	 eax, edx
  011b8	8b 95 9c fe ff
	ff		 mov	 edx, DWORD PTR _F$[ebp]
  011be	c1 ea 16	 shr	 edx, 22			; 00000016H
  011c1	8b 8d 9c fe ff
	ff		 mov	 ecx, DWORD PTR _F$[ebp]
  011c7	c1 e1 0a	 shl	 ecx, 10			; 0000000aH
  011ca	0b d1		 or	 edx, ecx
  011cc	33 c2		 xor	 eax, edx
  011ce	8b 95 9c fe ff
	ff		 mov	 edx, DWORD PTR _F$[ebp]
  011d4	23 95 90 fe ff
	ff		 and	 edx, DWORD PTR _G$[ebp]
  011da	8b 8d 9c fe ff
	ff		 mov	 ecx, DWORD PTR _F$[ebp]
  011e0	0b 8d 90 fe ff
	ff		 or	 ecx, DWORD PTR _G$[ebp]
  011e6	23 8d 84 fe ff
	ff		 and	 ecx, DWORD PTR _H$[ebp]
  011ec	0b d1		 or	 edx, ecx
  011ee	03 c2		 add	 eax, edx
  011f0	89 45 ec	 mov	 DWORD PTR _temp2$[ebp], eax
  011f3	8b 85 d8 fe ff
	ff		 mov	 eax, DWORD PTR _A$[ebp]
  011f9	03 45 f8	 add	 eax, DWORD PTR _temp1$[ebp]
  011fc	89 85 d8 fe ff
	ff		 mov	 DWORD PTR _A$[ebp], eax
  01202	8b 45 f8	 mov	 eax, DWORD PTR _temp1$[ebp]
  01205	03 45 ec	 add	 eax, DWORD PTR _temp2$[ebp]
  01208	89 85 a8 fe ff
	ff		 mov	 DWORD PTR _E$[ebp], eax

; 126  :     P( E, F, G, H, A, B, C, D, W[12], 0x72BE5D74 );

  0120e	8b 85 d8 fe ff
	ff		 mov	 eax, DWORD PTR _A$[ebp]
  01214	c1 e8 06	 shr	 eax, 6
  01217	8b 8d d8 fe ff
	ff		 mov	 ecx, DWORD PTR _A$[ebp]
  0121d	c1 e1 1a	 shl	 ecx, 26			; 0000001aH
  01220	0b c1		 or	 eax, ecx
  01222	8b 95 d8 fe ff
	ff		 mov	 edx, DWORD PTR _A$[ebp]
  01228	c1 ea 0b	 shr	 edx, 11			; 0000000bH
  0122b	8b 8d d8 fe ff
	ff		 mov	 ecx, DWORD PTR _A$[ebp]
  01231	c1 e1 15	 shl	 ecx, 21			; 00000015H
  01234	0b d1		 or	 edx, ecx
  01236	33 c2		 xor	 eax, edx
  01238	8b 95 d8 fe ff
	ff		 mov	 edx, DWORD PTR _A$[ebp]
  0123e	c1 ea 19	 shr	 edx, 25			; 00000019H
  01241	8b 8d d8 fe ff
	ff		 mov	 ecx, DWORD PTR _A$[ebp]
  01247	c1 e1 07	 shl	 ecx, 7
  0124a	0b d1		 or	 edx, ecx
  0124c	33 c2		 xor	 eax, edx
  0124e	03 85 b4 fe ff
	ff		 add	 eax, DWORD PTR _D$[ebp]
  01254	8b 95 cc fe ff
	ff		 mov	 edx, DWORD PTR _B$[ebp]
  0125a	33 95 c0 fe ff
	ff		 xor	 edx, DWORD PTR _C$[ebp]
  01260	23 95 d8 fe ff
	ff		 and	 edx, DWORD PTR _A$[ebp]
  01266	33 95 c0 fe ff
	ff		 xor	 edx, DWORD PTR _C$[ebp]
  0126c	03 c2		 add	 eax, edx
  0126e	b9 04 00 00 00	 mov	 ecx, 4
  01273	6b d1 0c	 imul	 edx, ecx, 12
  01276	8b 8c 15 e4 fe
	ff ff		 mov	 ecx, DWORD PTR _W$[ebp+edx]
  0127d	8d 94 08 74 5d
	be 72		 lea	 edx, DWORD PTR [eax+ecx+1925078388]
  01284	89 55 f8	 mov	 DWORD PTR _temp1$[ebp], edx
  01287	8b 85 a8 fe ff
	ff		 mov	 eax, DWORD PTR _E$[ebp]
  0128d	c1 e8 02	 shr	 eax, 2
  01290	8b 8d a8 fe ff
	ff		 mov	 ecx, DWORD PTR _E$[ebp]
  01296	c1 e1 1e	 shl	 ecx, 30			; 0000001eH
  01299	0b c1		 or	 eax, ecx
  0129b	8b 95 a8 fe ff
	ff		 mov	 edx, DWORD PTR _E$[ebp]
  012a1	c1 ea 0d	 shr	 edx, 13			; 0000000dH
  012a4	8b 8d a8 fe ff
	ff		 mov	 ecx, DWORD PTR _E$[ebp]
  012aa	c1 e1 13	 shl	 ecx, 19			; 00000013H
  012ad	0b d1		 or	 edx, ecx
  012af	33 c2		 xor	 eax, edx
  012b1	8b 95 a8 fe ff
	ff		 mov	 edx, DWORD PTR _E$[ebp]
  012b7	c1 ea 16	 shr	 edx, 22			; 00000016H
  012ba	8b 8d a8 fe ff
	ff		 mov	 ecx, DWORD PTR _E$[ebp]
  012c0	c1 e1 0a	 shl	 ecx, 10			; 0000000aH
  012c3	0b d1		 or	 edx, ecx
  012c5	33 c2		 xor	 eax, edx
  012c7	8b 95 a8 fe ff
	ff		 mov	 edx, DWORD PTR _E$[ebp]
  012cd	23 95 9c fe ff
	ff		 and	 edx, DWORD PTR _F$[ebp]
  012d3	8b 8d a8 fe ff
	ff		 mov	 ecx, DWORD PTR _E$[ebp]
  012d9	0b 8d 9c fe ff
	ff		 or	 ecx, DWORD PTR _F$[ebp]
  012df	23 8d 90 fe ff
	ff		 and	 ecx, DWORD PTR _G$[ebp]
  012e5	0b d1		 or	 edx, ecx
  012e7	03 c2		 add	 eax, edx
  012e9	89 45 ec	 mov	 DWORD PTR _temp2$[ebp], eax
  012ec	8b 85 84 fe ff
	ff		 mov	 eax, DWORD PTR _H$[ebp]
  012f2	03 45 f8	 add	 eax, DWORD PTR _temp1$[ebp]
  012f5	89 85 84 fe ff
	ff		 mov	 DWORD PTR _H$[ebp], eax
  012fb	8b 45 f8	 mov	 eax, DWORD PTR _temp1$[ebp]
  012fe	03 45 ec	 add	 eax, DWORD PTR _temp2$[ebp]
  01301	89 85 b4 fe ff
	ff		 mov	 DWORD PTR _D$[ebp], eax

; 127  :     P( D, E, F, G, H, A, B, C, W[13], 0x80DEB1FE );

  01307	8b 85 84 fe ff
	ff		 mov	 eax, DWORD PTR _H$[ebp]
  0130d	c1 e8 06	 shr	 eax, 6
  01310	8b 8d 84 fe ff
	ff		 mov	 ecx, DWORD PTR _H$[ebp]
  01316	c1 e1 1a	 shl	 ecx, 26			; 0000001aH
  01319	0b c1		 or	 eax, ecx
  0131b	8b 95 84 fe ff
	ff		 mov	 edx, DWORD PTR _H$[ebp]
  01321	c1 ea 0b	 shr	 edx, 11			; 0000000bH
  01324	8b 8d 84 fe ff
	ff		 mov	 ecx, DWORD PTR _H$[ebp]
  0132a	c1 e1 15	 shl	 ecx, 21			; 00000015H
  0132d	0b d1		 or	 edx, ecx
  0132f	33 c2		 xor	 eax, edx
  01331	8b 95 84 fe ff
	ff		 mov	 edx, DWORD PTR _H$[ebp]
  01337	c1 ea 19	 shr	 edx, 25			; 00000019H
  0133a	8b 8d 84 fe ff
	ff		 mov	 ecx, DWORD PTR _H$[ebp]
  01340	c1 e1 07	 shl	 ecx, 7
  01343	0b d1		 or	 edx, ecx
  01345	33 c2		 xor	 eax, edx
  01347	03 85 c0 fe ff
	ff		 add	 eax, DWORD PTR _C$[ebp]
  0134d	8b 95 d8 fe ff
	ff		 mov	 edx, DWORD PTR _A$[ebp]
  01353	33 95 cc fe ff
	ff		 xor	 edx, DWORD PTR _B$[ebp]
  01359	23 95 84 fe ff
	ff		 and	 edx, DWORD PTR _H$[ebp]
  0135f	33 95 cc fe ff
	ff		 xor	 edx, DWORD PTR _B$[ebp]
  01365	03 c2		 add	 eax, edx
  01367	b9 04 00 00 00	 mov	 ecx, 4
  0136c	6b d1 0d	 imul	 edx, ecx, 13
  0136f	8b 8c 15 e4 fe
	ff ff		 mov	 ecx, DWORD PTR _W$[ebp+edx]
  01376	8d 94 08 fe b1
	de 80		 lea	 edx, DWORD PTR [eax+ecx-2132889090]
  0137d	89 55 f8	 mov	 DWORD PTR _temp1$[ebp], edx
  01380	8b 85 b4 fe ff
	ff		 mov	 eax, DWORD PTR _D$[ebp]
  01386	c1 e8 02	 shr	 eax, 2
  01389	8b 8d b4 fe ff
	ff		 mov	 ecx, DWORD PTR _D$[ebp]
  0138f	c1 e1 1e	 shl	 ecx, 30			; 0000001eH
  01392	0b c1		 or	 eax, ecx
  01394	8b 95 b4 fe ff
	ff		 mov	 edx, DWORD PTR _D$[ebp]
  0139a	c1 ea 0d	 shr	 edx, 13			; 0000000dH
  0139d	8b 8d b4 fe ff
	ff		 mov	 ecx, DWORD PTR _D$[ebp]
  013a3	c1 e1 13	 shl	 ecx, 19			; 00000013H
  013a6	0b d1		 or	 edx, ecx
  013a8	33 c2		 xor	 eax, edx
  013aa	8b 95 b4 fe ff
	ff		 mov	 edx, DWORD PTR _D$[ebp]
  013b0	c1 ea 16	 shr	 edx, 22			; 00000016H
  013b3	8b 8d b4 fe ff
	ff		 mov	 ecx, DWORD PTR _D$[ebp]
  013b9	c1 e1 0a	 shl	 ecx, 10			; 0000000aH
  013bc	0b d1		 or	 edx, ecx
  013be	33 c2		 xor	 eax, edx
  013c0	8b 95 b4 fe ff
	ff		 mov	 edx, DWORD PTR _D$[ebp]
  013c6	23 95 a8 fe ff
	ff		 and	 edx, DWORD PTR _E$[ebp]
  013cc	8b 8d b4 fe ff
	ff		 mov	 ecx, DWORD PTR _D$[ebp]
  013d2	0b 8d a8 fe ff
	ff		 or	 ecx, DWORD PTR _E$[ebp]
  013d8	23 8d 9c fe ff
	ff		 and	 ecx, DWORD PTR _F$[ebp]
  013de	0b d1		 or	 edx, ecx
  013e0	03 c2		 add	 eax, edx
  013e2	89 45 ec	 mov	 DWORD PTR _temp2$[ebp], eax
  013e5	8b 85 90 fe ff
	ff		 mov	 eax, DWORD PTR _G$[ebp]
  013eb	03 45 f8	 add	 eax, DWORD PTR _temp1$[ebp]
  013ee	89 85 90 fe ff
	ff		 mov	 DWORD PTR _G$[ebp], eax
  013f4	8b 45 f8	 mov	 eax, DWORD PTR _temp1$[ebp]
  013f7	03 45 ec	 add	 eax, DWORD PTR _temp2$[ebp]
  013fa	89 85 c0 fe ff
	ff		 mov	 DWORD PTR _C$[ebp], eax

; 128  :     P( C, D, E, F, G, H, A, B, W[14], 0x9BDC06A7 );

  01400	8b 85 90 fe ff
	ff		 mov	 eax, DWORD PTR _G$[ebp]
  01406	c1 e8 06	 shr	 eax, 6
  01409	8b 8d 90 fe ff
	ff		 mov	 ecx, DWORD PTR _G$[ebp]
  0140f	c1 e1 1a	 shl	 ecx, 26			; 0000001aH
  01412	0b c1		 or	 eax, ecx
  01414	8b 95 90 fe ff
	ff		 mov	 edx, DWORD PTR _G$[ebp]
  0141a	c1 ea 0b	 shr	 edx, 11			; 0000000bH
  0141d	8b 8d 90 fe ff
	ff		 mov	 ecx, DWORD PTR _G$[ebp]
  01423	c1 e1 15	 shl	 ecx, 21			; 00000015H
  01426	0b d1		 or	 edx, ecx
  01428	33 c2		 xor	 eax, edx
  0142a	8b 95 90 fe ff
	ff		 mov	 edx, DWORD PTR _G$[ebp]
  01430	c1 ea 19	 shr	 edx, 25			; 00000019H
  01433	8b 8d 90 fe ff
	ff		 mov	 ecx, DWORD PTR _G$[ebp]
  01439	c1 e1 07	 shl	 ecx, 7
  0143c	0b d1		 or	 edx, ecx
  0143e	33 c2		 xor	 eax, edx
  01440	03 85 cc fe ff
	ff		 add	 eax, DWORD PTR _B$[ebp]
  01446	8b 95 84 fe ff
	ff		 mov	 edx, DWORD PTR _H$[ebp]
  0144c	33 95 d8 fe ff
	ff		 xor	 edx, DWORD PTR _A$[ebp]
  01452	23 95 90 fe ff
	ff		 and	 edx, DWORD PTR _G$[ebp]
  01458	33 95 d8 fe ff
	ff		 xor	 edx, DWORD PTR _A$[ebp]
  0145e	03 c2		 add	 eax, edx
  01460	b9 04 00 00 00	 mov	 ecx, 4
  01465	6b d1 0e	 imul	 edx, ecx, 14
  01468	8b 8c 15 e4 fe
	ff ff		 mov	 ecx, DWORD PTR _W$[ebp+edx]
  0146f	8d 94 08 a7 06
	dc 9b		 lea	 edx, DWORD PTR [eax+ecx-1680079193]
  01476	89 55 f8	 mov	 DWORD PTR _temp1$[ebp], edx
  01479	8b 85 c0 fe ff
	ff		 mov	 eax, DWORD PTR _C$[ebp]
  0147f	c1 e8 02	 shr	 eax, 2
  01482	8b 8d c0 fe ff
	ff		 mov	 ecx, DWORD PTR _C$[ebp]
  01488	c1 e1 1e	 shl	 ecx, 30			; 0000001eH
  0148b	0b c1		 or	 eax, ecx
  0148d	8b 95 c0 fe ff
	ff		 mov	 edx, DWORD PTR _C$[ebp]
  01493	c1 ea 0d	 shr	 edx, 13			; 0000000dH
  01496	8b 8d c0 fe ff
	ff		 mov	 ecx, DWORD PTR _C$[ebp]
  0149c	c1 e1 13	 shl	 ecx, 19			; 00000013H
  0149f	0b d1		 or	 edx, ecx
  014a1	33 c2		 xor	 eax, edx
  014a3	8b 95 c0 fe ff
	ff		 mov	 edx, DWORD PTR _C$[ebp]
  014a9	c1 ea 16	 shr	 edx, 22			; 00000016H
  014ac	8b 8d c0 fe ff
	ff		 mov	 ecx, DWORD PTR _C$[ebp]
  014b2	c1 e1 0a	 shl	 ecx, 10			; 0000000aH
  014b5	0b d1		 or	 edx, ecx
  014b7	33 c2		 xor	 eax, edx
  014b9	8b 95 c0 fe ff
	ff		 mov	 edx, DWORD PTR _C$[ebp]
  014bf	23 95 b4 fe ff
	ff		 and	 edx, DWORD PTR _D$[ebp]
  014c5	8b 8d c0 fe ff
	ff		 mov	 ecx, DWORD PTR _C$[ebp]
  014cb	0b 8d b4 fe ff
	ff		 or	 ecx, DWORD PTR _D$[ebp]
  014d1	23 8d a8 fe ff
	ff		 and	 ecx, DWORD PTR _E$[ebp]
  014d7	0b d1		 or	 edx, ecx
  014d9	03 c2		 add	 eax, edx
  014db	89 45 ec	 mov	 DWORD PTR _temp2$[ebp], eax
  014de	8b 85 9c fe ff
	ff		 mov	 eax, DWORD PTR _F$[ebp]
  014e4	03 45 f8	 add	 eax, DWORD PTR _temp1$[ebp]
  014e7	89 85 9c fe ff
	ff		 mov	 DWORD PTR _F$[ebp], eax
  014ed	8b 45 f8	 mov	 eax, DWORD PTR _temp1$[ebp]
  014f0	03 45 ec	 add	 eax, DWORD PTR _temp2$[ebp]
  014f3	89 85 cc fe ff
	ff		 mov	 DWORD PTR _B$[ebp], eax

; 129  :     P( B, C, D, E, F, G, H, A, W[15], 0xC19BF174 );

  014f9	8b 85 9c fe ff
	ff		 mov	 eax, DWORD PTR _F$[ebp]
  014ff	c1 e8 06	 shr	 eax, 6
  01502	8b 8d 9c fe ff
	ff		 mov	 ecx, DWORD PTR _F$[ebp]
  01508	c1 e1 1a	 shl	 ecx, 26			; 0000001aH
  0150b	0b c1		 or	 eax, ecx
  0150d	8b 95 9c fe ff
	ff		 mov	 edx, DWORD PTR _F$[ebp]
  01513	c1 ea 0b	 shr	 edx, 11			; 0000000bH
  01516	8b 8d 9c fe ff
	ff		 mov	 ecx, DWORD PTR _F$[ebp]
  0151c	c1 e1 15	 shl	 ecx, 21			; 00000015H
  0151f	0b d1		 or	 edx, ecx
  01521	33 c2		 xor	 eax, edx
  01523	8b 95 9c fe ff
	ff		 mov	 edx, DWORD PTR _F$[ebp]
  01529	c1 ea 19	 shr	 edx, 25			; 00000019H
  0152c	8b 8d 9c fe ff
	ff		 mov	 ecx, DWORD PTR _F$[ebp]
  01532	c1 e1 07	 shl	 ecx, 7
  01535	0b d1		 or	 edx, ecx
  01537	33 c2		 xor	 eax, edx
  01539	03 85 d8 fe ff
	ff		 add	 eax, DWORD PTR _A$[ebp]
  0153f	8b 95 90 fe ff
	ff		 mov	 edx, DWORD PTR _G$[ebp]
  01545	33 95 84 fe ff
	ff		 xor	 edx, DWORD PTR _H$[ebp]
  0154b	23 95 9c fe ff
	ff		 and	 edx, DWORD PTR _F$[ebp]
  01551	33 95 84 fe ff
	ff		 xor	 edx, DWORD PTR _H$[ebp]
  01557	03 c2		 add	 eax, edx
  01559	b9 04 00 00 00	 mov	 ecx, 4
  0155e	6b d1 0f	 imul	 edx, ecx, 15
  01561	8b 8c 15 e4 fe
	ff ff		 mov	 ecx, DWORD PTR _W$[ebp+edx]
  01568	8d 94 08 74 f1
	9b c1		 lea	 edx, DWORD PTR [eax+ecx-1046744716]
  0156f	89 55 f8	 mov	 DWORD PTR _temp1$[ebp], edx
  01572	8b 85 cc fe ff
	ff		 mov	 eax, DWORD PTR _B$[ebp]
  01578	c1 e8 02	 shr	 eax, 2
  0157b	8b 8d cc fe ff
	ff		 mov	 ecx, DWORD PTR _B$[ebp]
  01581	c1 e1 1e	 shl	 ecx, 30			; 0000001eH
  01584	0b c1		 or	 eax, ecx
  01586	8b 95 cc fe ff
	ff		 mov	 edx, DWORD PTR _B$[ebp]
  0158c	c1 ea 0d	 shr	 edx, 13			; 0000000dH
  0158f	8b 8d cc fe ff
	ff		 mov	 ecx, DWORD PTR _B$[ebp]
  01595	c1 e1 13	 shl	 ecx, 19			; 00000013H
  01598	0b d1		 or	 edx, ecx
  0159a	33 c2		 xor	 eax, edx
  0159c	8b 95 cc fe ff
	ff		 mov	 edx, DWORD PTR _B$[ebp]
  015a2	c1 ea 16	 shr	 edx, 22			; 00000016H
  015a5	8b 8d cc fe ff
	ff		 mov	 ecx, DWORD PTR _B$[ebp]
  015ab	c1 e1 0a	 shl	 ecx, 10			; 0000000aH
  015ae	0b d1		 or	 edx, ecx
  015b0	33 c2		 xor	 eax, edx
  015b2	8b 95 cc fe ff
	ff		 mov	 edx, DWORD PTR _B$[ebp]
  015b8	23 95 c0 fe ff
	ff		 and	 edx, DWORD PTR _C$[ebp]
  015be	8b 8d cc fe ff
	ff		 mov	 ecx, DWORD PTR _B$[ebp]
  015c4	0b 8d c0 fe ff
	ff		 or	 ecx, DWORD PTR _C$[ebp]
  015ca	23 8d b4 fe ff
	ff		 and	 ecx, DWORD PTR _D$[ebp]
  015d0	0b d1		 or	 edx, ecx
  015d2	03 c2		 add	 eax, edx
  015d4	89 45 ec	 mov	 DWORD PTR _temp2$[ebp], eax
  015d7	8b 85 a8 fe ff
	ff		 mov	 eax, DWORD PTR _E$[ebp]
  015dd	03 45 f8	 add	 eax, DWORD PTR _temp1$[ebp]
  015e0	89 85 a8 fe ff
	ff		 mov	 DWORD PTR _E$[ebp], eax
  015e6	8b 45 f8	 mov	 eax, DWORD PTR _temp1$[ebp]
  015e9	03 45 ec	 add	 eax, DWORD PTR _temp2$[ebp]
  015ec	89 85 d8 fe ff
	ff		 mov	 DWORD PTR _A$[ebp], eax

; 130  :     P( A, B, C, D, E, F, G, H, R(16), 0xE49B69C1 );

  015f2	b8 04 00 00 00	 mov	 eax, 4
  015f7	6b c8 0e	 imul	 ecx, eax, 14
  015fa	8b 94 0d e4 fe
	ff ff		 mov	 edx, DWORD PTR _W$[ebp+ecx]
  01601	c1 ea 11	 shr	 edx, 17			; 00000011H
  01604	b8 04 00 00 00	 mov	 eax, 4
  01609	6b c8 0e	 imul	 ecx, eax, 14
  0160c	8b 84 0d e4 fe
	ff ff		 mov	 eax, DWORD PTR _W$[ebp+ecx]
  01613	c1 e0 0f	 shl	 eax, 15			; 0000000fH
  01616	0b d0		 or	 edx, eax
  01618	b9 04 00 00 00	 mov	 ecx, 4
  0161d	6b c1 0e	 imul	 eax, ecx, 14
  01620	8b 8c 05 e4 fe
	ff ff		 mov	 ecx, DWORD PTR _W$[ebp+eax]
  01627	c1 e9 13	 shr	 ecx, 19			; 00000013H
  0162a	b8 04 00 00 00	 mov	 eax, 4
  0162f	6b c0 0e	 imul	 eax, eax, 14
  01632	8b 84 05 e4 fe
	ff ff		 mov	 eax, DWORD PTR _W$[ebp+eax]
  01639	c1 e0 0d	 shl	 eax, 13			; 0000000dH
  0163c	0b c8		 or	 ecx, eax
  0163e	33 d1		 xor	 edx, ecx
  01640	b9 04 00 00 00	 mov	 ecx, 4
  01645	6b c1 0e	 imul	 eax, ecx, 14
  01648	8b 8c 05 e4 fe
	ff ff		 mov	 ecx, DWORD PTR _W$[ebp+eax]
  0164f	c1 e9 0a	 shr	 ecx, 10			; 0000000aH
  01652	33 d1		 xor	 edx, ecx
  01654	b8 04 00 00 00	 mov	 eax, 4
  01659	6b c8 09	 imul	 ecx, eax, 9
  0165c	03 94 0d e4 fe
	ff ff		 add	 edx, DWORD PTR _W$[ebp+ecx]
  01663	b8 04 00 00 00	 mov	 eax, 4
  01668	c1 e0 00	 shl	 eax, 0
  0166b	8b 8c 05 e4 fe
	ff ff		 mov	 ecx, DWORD PTR _W$[ebp+eax]
  01672	c1 e9 07	 shr	 ecx, 7
  01675	b8 04 00 00 00	 mov	 eax, 4
  0167a	c1 e0 00	 shl	 eax, 0
  0167d	8b 84 05 e4 fe
	ff ff		 mov	 eax, DWORD PTR _W$[ebp+eax]
  01684	c1 e0 19	 shl	 eax, 25			; 00000019H
  01687	0b c8		 or	 ecx, eax
  01689	b8 04 00 00 00	 mov	 eax, 4
  0168e	c1 e0 00	 shl	 eax, 0
  01691	8b 84 05 e4 fe
	ff ff		 mov	 eax, DWORD PTR _W$[ebp+eax]
  01698	c1 e8 12	 shr	 eax, 18			; 00000012H
  0169b	be 04 00 00 00	 mov	 esi, 4
  016a0	c1 e6 00	 shl	 esi, 0
  016a3	8b b4 35 e4 fe
	ff ff		 mov	 esi, DWORD PTR _W$[ebp+esi]
  016aa	c1 e6 0e	 shl	 esi, 14			; 0000000eH
  016ad	0b c6		 or	 eax, esi
  016af	33 c8		 xor	 ecx, eax
  016b1	b8 04 00 00 00	 mov	 eax, 4
  016b6	c1 e0 00	 shl	 eax, 0
  016b9	8b 84 05 e4 fe
	ff ff		 mov	 eax, DWORD PTR _W$[ebp+eax]
  016c0	c1 e8 03	 shr	 eax, 3
  016c3	33 c8		 xor	 ecx, eax
  016c5	03 d1		 add	 edx, ecx
  016c7	b9 04 00 00 00	 mov	 ecx, 4
  016cc	6b c1 00	 imul	 eax, ecx, 0
  016cf	03 94 05 e4 fe
	ff ff		 add	 edx, DWORD PTR _W$[ebp+eax]
  016d6	89 95 bc fd ff
	ff		 mov	 DWORD PTR tv1111[ebp], edx
  016dc	b9 04 00 00 00	 mov	 ecx, 4
  016e1	c1 e1 04	 shl	 ecx, 4
  016e4	8b 95 bc fd ff
	ff		 mov	 edx, DWORD PTR tv1111[ebp]
  016ea	89 94 0d e4 fe
	ff ff		 mov	 DWORD PTR _W$[ebp+ecx], edx
  016f1	8b 85 9c fe ff
	ff		 mov	 eax, DWORD PTR _F$[ebp]
  016f7	33 85 90 fe ff
	ff		 xor	 eax, DWORD PTR _G$[ebp]
  016fd	23 85 a8 fe ff
	ff		 and	 eax, DWORD PTR _E$[ebp]
  01703	33 85 90 fe ff
	ff		 xor	 eax, DWORD PTR _G$[ebp]
  01709	8b 8d a8 fe ff
	ff		 mov	 ecx, DWORD PTR _E$[ebp]
  0170f	c1 e1 07	 shl	 ecx, 7
  01712	8b 95 a8 fe ff
	ff		 mov	 edx, DWORD PTR _E$[ebp]
  01718	c1 ea 19	 shr	 edx, 25			; 00000019H
  0171b	0b d1		 or	 edx, ecx
  0171d	8b 8d a8 fe ff
	ff		 mov	 ecx, DWORD PTR _E$[ebp]
  01723	c1 e1 15	 shl	 ecx, 21			; 00000015H
  01726	8b b5 a8 fe ff
	ff		 mov	 esi, DWORD PTR _E$[ebp]
  0172c	c1 ee 0b	 shr	 esi, 11			; 0000000bH
  0172f	0b f1		 or	 esi, ecx
  01731	8b 8d a8 fe ff
	ff		 mov	 ecx, DWORD PTR _E$[ebp]
  01737	c1 e1 1a	 shl	 ecx, 26			; 0000001aH
  0173a	8b bd a8 fe ff
	ff		 mov	 edi, DWORD PTR _E$[ebp]
  01740	c1 ef 06	 shr	 edi, 6
  01743	0b f9		 or	 edi, ecx
  01745	33 fe		 xor	 edi, esi
  01747	33 fa		 xor	 edi, edx
  01749	03 bd 84 fe ff
	ff		 add	 edi, DWORD PTR _H$[ebp]
  0174f	03 bd bc fd ff
	ff		 add	 edi, DWORD PTR tv1111[ebp]
  01755	8d 94 38 c1 69
	9b e4		 lea	 edx, DWORD PTR [eax+edi-459576895]
  0175c	89 55 f8	 mov	 DWORD PTR _temp1$[ebp], edx
  0175f	8b 85 d8 fe ff
	ff		 mov	 eax, DWORD PTR _A$[ebp]
  01765	c1 e8 02	 shr	 eax, 2
  01768	8b 8d d8 fe ff
	ff		 mov	 ecx, DWORD PTR _A$[ebp]
  0176e	c1 e1 1e	 shl	 ecx, 30			; 0000001eH
  01771	0b c1		 or	 eax, ecx
  01773	8b 95 d8 fe ff
	ff		 mov	 edx, DWORD PTR _A$[ebp]
  01779	c1 ea 0d	 shr	 edx, 13			; 0000000dH
  0177c	8b 8d d8 fe ff
	ff		 mov	 ecx, DWORD PTR _A$[ebp]
  01782	c1 e1 13	 shl	 ecx, 19			; 00000013H
  01785	0b d1		 or	 edx, ecx
  01787	33 c2		 xor	 eax, edx
  01789	8b 95 d8 fe ff
	ff		 mov	 edx, DWORD PTR _A$[ebp]
  0178f	c1 ea 16	 shr	 edx, 22			; 00000016H
  01792	8b 8d d8 fe ff
	ff		 mov	 ecx, DWORD PTR _A$[ebp]
  01798	c1 e1 0a	 shl	 ecx, 10			; 0000000aH
  0179b	0b d1		 or	 edx, ecx
  0179d	33 c2		 xor	 eax, edx
  0179f	8b 95 d8 fe ff
	ff		 mov	 edx, DWORD PTR _A$[ebp]
  017a5	23 95 cc fe ff
	ff		 and	 edx, DWORD PTR _B$[ebp]
  017ab	8b 8d d8 fe ff
	ff		 mov	 ecx, DWORD PTR _A$[ebp]
  017b1	0b 8d cc fe ff
	ff		 or	 ecx, DWORD PTR _B$[ebp]
  017b7	23 8d c0 fe ff
	ff		 and	 ecx, DWORD PTR _C$[ebp]
  017bd	0b d1		 or	 edx, ecx
  017bf	03 c2		 add	 eax, edx
  017c1	89 45 ec	 mov	 DWORD PTR _temp2$[ebp], eax
  017c4	8b 85 b4 fe ff
	ff		 mov	 eax, DWORD PTR _D$[ebp]
  017ca	03 45 f8	 add	 eax, DWORD PTR _temp1$[ebp]
  017cd	89 85 b4 fe ff
	ff		 mov	 DWORD PTR _D$[ebp], eax
  017d3	8b 45 f8	 mov	 eax, DWORD PTR _temp1$[ebp]
  017d6	03 45 ec	 add	 eax, DWORD PTR _temp2$[ebp]
  017d9	89 85 84 fe ff
	ff		 mov	 DWORD PTR _H$[ebp], eax

; 131  :     P( H, A, B, C, D, E, F, G, R(17), 0xEFBE4786 );

  017df	b8 04 00 00 00	 mov	 eax, 4
  017e4	6b c8 0f	 imul	 ecx, eax, 15
  017e7	8b 94 0d e4 fe
	ff ff		 mov	 edx, DWORD PTR _W$[ebp+ecx]
  017ee	c1 ea 11	 shr	 edx, 17			; 00000011H
  017f1	b8 04 00 00 00	 mov	 eax, 4
  017f6	6b c8 0f	 imul	 ecx, eax, 15
  017f9	8b 84 0d e4 fe
	ff ff		 mov	 eax, DWORD PTR _W$[ebp+ecx]
  01800	c1 e0 0f	 shl	 eax, 15			; 0000000fH
  01803	0b d0		 or	 edx, eax
  01805	b9 04 00 00 00	 mov	 ecx, 4
  0180a	6b c1 0f	 imul	 eax, ecx, 15
  0180d	8b 8c 05 e4 fe
	ff ff		 mov	 ecx, DWORD PTR _W$[ebp+eax]
  01814	c1 e9 13	 shr	 ecx, 19			; 00000013H
  01817	b8 04 00 00 00	 mov	 eax, 4
  0181c	6b c0 0f	 imul	 eax, eax, 15
  0181f	8b 84 05 e4 fe
	ff ff		 mov	 eax, DWORD PTR _W$[ebp+eax]
  01826	c1 e0 0d	 shl	 eax, 13			; 0000000dH
  01829	0b c8		 or	 ecx, eax
  0182b	33 d1		 xor	 edx, ecx
  0182d	b9 04 00 00 00	 mov	 ecx, 4
  01832	6b c1 0f	 imul	 eax, ecx, 15
  01835	8b 8c 05 e4 fe
	ff ff		 mov	 ecx, DWORD PTR _W$[ebp+eax]
  0183c	c1 e9 0a	 shr	 ecx, 10			; 0000000aH
  0183f	33 d1		 xor	 edx, ecx
  01841	b8 04 00 00 00	 mov	 eax, 4
  01846	6b c8 0a	 imul	 ecx, eax, 10
  01849	03 94 0d e4 fe
	ff ff		 add	 edx, DWORD PTR _W$[ebp+ecx]
  01850	b8 04 00 00 00	 mov	 eax, 4
  01855	d1 e0		 shl	 eax, 1
  01857	8b 8c 05 e4 fe
	ff ff		 mov	 ecx, DWORD PTR _W$[ebp+eax]
  0185e	c1 e9 07	 shr	 ecx, 7
  01861	b8 04 00 00 00	 mov	 eax, 4
  01866	d1 e0		 shl	 eax, 1
  01868	8b 84 05 e4 fe
	ff ff		 mov	 eax, DWORD PTR _W$[ebp+eax]
  0186f	c1 e0 19	 shl	 eax, 25			; 00000019H
  01872	0b c8		 or	 ecx, eax
  01874	b8 04 00 00 00	 mov	 eax, 4
  01879	d1 e0		 shl	 eax, 1
  0187b	8b 84 05 e4 fe
	ff ff		 mov	 eax, DWORD PTR _W$[ebp+eax]
  01882	c1 e8 12	 shr	 eax, 18			; 00000012H
  01885	be 04 00 00 00	 mov	 esi, 4
  0188a	d1 e6		 shl	 esi, 1
  0188c	8b b4 35 e4 fe
	ff ff		 mov	 esi, DWORD PTR _W$[ebp+esi]
  01893	c1 e6 0e	 shl	 esi, 14			; 0000000eH
  01896	0b c6		 or	 eax, esi
  01898	33 c8		 xor	 ecx, eax
  0189a	b8 04 00 00 00	 mov	 eax, 4
  0189f	d1 e0		 shl	 eax, 1
  018a1	8b 84 05 e4 fe
	ff ff		 mov	 eax, DWORD PTR _W$[ebp+eax]
  018a8	c1 e8 03	 shr	 eax, 3
  018ab	33 c8		 xor	 ecx, eax
  018ad	03 d1		 add	 edx, ecx
  018af	b9 04 00 00 00	 mov	 ecx, 4
  018b4	c1 e1 00	 shl	 ecx, 0
  018b7	03 94 0d e4 fe
	ff ff		 add	 edx, DWORD PTR _W$[ebp+ecx]
  018be	89 95 bc fd ff
	ff		 mov	 DWORD PTR tv1194[ebp], edx
  018c4	ba 04 00 00 00	 mov	 edx, 4
  018c9	6b c2 11	 imul	 eax, edx, 17
  018cc	8b 8d bc fd ff
	ff		 mov	 ecx, DWORD PTR tv1194[ebp]
  018d2	89 8c 05 e4 fe
	ff ff		 mov	 DWORD PTR _W$[ebp+eax], ecx
  018d9	8b 95 a8 fe ff
	ff		 mov	 edx, DWORD PTR _E$[ebp]
  018df	33 95 9c fe ff
	ff		 xor	 edx, DWORD PTR _F$[ebp]
  018e5	23 95 b4 fe ff
	ff		 and	 edx, DWORD PTR _D$[ebp]
  018eb	33 95 9c fe ff
	ff		 xor	 edx, DWORD PTR _F$[ebp]
  018f1	8b 85 b4 fe ff
	ff		 mov	 eax, DWORD PTR _D$[ebp]
  018f7	c1 e0 07	 shl	 eax, 7
  018fa	8b 8d b4 fe ff
	ff		 mov	 ecx, DWORD PTR _D$[ebp]
  01900	c1 e9 19	 shr	 ecx, 25			; 00000019H
  01903	0b c8		 or	 ecx, eax
  01905	8b 85 b4 fe ff
	ff		 mov	 eax, DWORD PTR _D$[ebp]
  0190b	c1 e0 15	 shl	 eax, 21			; 00000015H
  0190e	8b b5 b4 fe ff
	ff		 mov	 esi, DWORD PTR _D$[ebp]
  01914	c1 ee 0b	 shr	 esi, 11			; 0000000bH
  01917	0b f0		 or	 esi, eax
  01919	8b 85 b4 fe ff
	ff		 mov	 eax, DWORD PTR _D$[ebp]
  0191f	c1 e0 1a	 shl	 eax, 26			; 0000001aH
  01922	8b bd b4 fe ff
	ff		 mov	 edi, DWORD PTR _D$[ebp]
  01928	c1 ef 06	 shr	 edi, 6
  0192b	0b f8		 or	 edi, eax
  0192d	33 fe		 xor	 edi, esi
  0192f	33 f9		 xor	 edi, ecx
  01931	03 bd 90 fe ff
	ff		 add	 edi, DWORD PTR _G$[ebp]
  01937	03 bd bc fd ff
	ff		 add	 edi, DWORD PTR tv1194[ebp]
  0193d	8d 8c 3a 86 47
	be ef		 lea	 ecx, DWORD PTR [edx+edi-272742522]
  01944	89 4d f8	 mov	 DWORD PTR _temp1$[ebp], ecx
  01947	8b 85 84 fe ff
	ff		 mov	 eax, DWORD PTR _H$[ebp]
  0194d	c1 e8 02	 shr	 eax, 2
  01950	8b 8d 84 fe ff
	ff		 mov	 ecx, DWORD PTR _H$[ebp]
  01956	c1 e1 1e	 shl	 ecx, 30			; 0000001eH
  01959	0b c1		 or	 eax, ecx
  0195b	8b 95 84 fe ff
	ff		 mov	 edx, DWORD PTR _H$[ebp]
  01961	c1 ea 0d	 shr	 edx, 13			; 0000000dH
  01964	8b 8d 84 fe ff
	ff		 mov	 ecx, DWORD PTR _H$[ebp]
  0196a	c1 e1 13	 shl	 ecx, 19			; 00000013H
  0196d	0b d1		 or	 edx, ecx
  0196f	33 c2		 xor	 eax, edx
  01971	8b 95 84 fe ff
	ff		 mov	 edx, DWORD PTR _H$[ebp]
  01977	c1 ea 16	 shr	 edx, 22			; 00000016H
  0197a	8b 8d 84 fe ff
	ff		 mov	 ecx, DWORD PTR _H$[ebp]
  01980	c1 e1 0a	 shl	 ecx, 10			; 0000000aH
  01983	0b d1		 or	 edx, ecx
  01985	33 c2		 xor	 eax, edx
  01987	8b 95 84 fe ff
	ff		 mov	 edx, DWORD PTR _H$[ebp]
  0198d	23 95 d8 fe ff
	ff		 and	 edx, DWORD PTR _A$[ebp]
  01993	8b 8d 84 fe ff
	ff		 mov	 ecx, DWORD PTR _H$[ebp]
  01999	0b 8d d8 fe ff
	ff		 or	 ecx, DWORD PTR _A$[ebp]
  0199f	23 8d cc fe ff
	ff		 and	 ecx, DWORD PTR _B$[ebp]
  019a5	0b d1		 or	 edx, ecx
  019a7	03 c2		 add	 eax, edx
  019a9	89 45 ec	 mov	 DWORD PTR _temp2$[ebp], eax
  019ac	8b 85 c0 fe ff
	ff		 mov	 eax, DWORD PTR _C$[ebp]
  019b2	03 45 f8	 add	 eax, DWORD PTR _temp1$[ebp]
  019b5	89 85 c0 fe ff
	ff		 mov	 DWORD PTR _C$[ebp], eax
  019bb	8b 45 f8	 mov	 eax, DWORD PTR _temp1$[ebp]
  019be	03 45 ec	 add	 eax, DWORD PTR _temp2$[ebp]
  019c1	89 85 90 fe ff
	ff		 mov	 DWORD PTR _G$[ebp], eax

; 132  :     P( G, H, A, B, C, D, E, F, R(18), 0x0FC19DC6 );

  019c7	b8 04 00 00 00	 mov	 eax, 4
  019cc	c1 e0 04	 shl	 eax, 4
  019cf	8b 8c 05 e4 fe
	ff ff		 mov	 ecx, DWORD PTR _W$[ebp+eax]
  019d6	c1 e9 11	 shr	 ecx, 17			; 00000011H
  019d9	ba 04 00 00 00	 mov	 edx, 4
  019de	c1 e2 04	 shl	 edx, 4
  019e1	8b 84 15 e4 fe
	ff ff		 mov	 eax, DWORD PTR _W$[ebp+edx]
  019e8	c1 e0 0f	 shl	 eax, 15			; 0000000fH
  019eb	0b c8		 or	 ecx, eax
  019ed	ba 04 00 00 00	 mov	 edx, 4
  019f2	c1 e2 04	 shl	 edx, 4
  019f5	8b 84 15 e4 fe
	ff ff		 mov	 eax, DWORD PTR _W$[ebp+edx]
  019fc	c1 e8 13	 shr	 eax, 19			; 00000013H
  019ff	ba 04 00 00 00	 mov	 edx, 4
  01a04	c1 e2 04	 shl	 edx, 4
  01a07	8b 94 15 e4 fe
	ff ff		 mov	 edx, DWORD PTR _W$[ebp+edx]
  01a0e	c1 e2 0d	 shl	 edx, 13			; 0000000dH
  01a11	0b c2		 or	 eax, edx
  01a13	33 c8		 xor	 ecx, eax
  01a15	b8 04 00 00 00	 mov	 eax, 4
  01a1a	c1 e0 04	 shl	 eax, 4
  01a1d	8b 94 05 e4 fe
	ff ff		 mov	 edx, DWORD PTR _W$[ebp+eax]
  01a24	c1 ea 0a	 shr	 edx, 10			; 0000000aH
  01a27	33 ca		 xor	 ecx, edx
  01a29	b8 04 00 00 00	 mov	 eax, 4
  01a2e	6b d0 0b	 imul	 edx, eax, 11
  01a31	03 8c 15 e4 fe
	ff ff		 add	 ecx, DWORD PTR _W$[ebp+edx]
  01a38	b8 04 00 00 00	 mov	 eax, 4
  01a3d	6b d0 03	 imul	 edx, eax, 3
  01a40	8b 84 15 e4 fe
	ff ff		 mov	 eax, DWORD PTR _W$[ebp+edx]
  01a47	c1 e8 07	 shr	 eax, 7
  01a4a	ba 04 00 00 00	 mov	 edx, 4
  01a4f	6b d2 03	 imul	 edx, edx, 3
  01a52	8b 94 15 e4 fe
	ff ff		 mov	 edx, DWORD PTR _W$[ebp+edx]
  01a59	c1 e2 19	 shl	 edx, 25			; 00000019H
  01a5c	0b c2		 or	 eax, edx
  01a5e	ba 04 00 00 00	 mov	 edx, 4
  01a63	6b d2 03	 imul	 edx, edx, 3
  01a66	8b 94 15 e4 fe
	ff ff		 mov	 edx, DWORD PTR _W$[ebp+edx]
  01a6d	c1 ea 12	 shr	 edx, 18			; 00000012H
  01a70	be 04 00 00 00	 mov	 esi, 4
  01a75	6b f6 03	 imul	 esi, esi, 3
  01a78	8b b4 35 e4 fe
	ff ff		 mov	 esi, DWORD PTR _W$[ebp+esi]
  01a7f	c1 e6 0e	 shl	 esi, 14			; 0000000eH
  01a82	0b d6		 or	 edx, esi
  01a84	33 c2		 xor	 eax, edx
  01a86	ba 04 00 00 00	 mov	 edx, 4
  01a8b	6b d2 03	 imul	 edx, edx, 3
  01a8e	8b 94 15 e4 fe
	ff ff		 mov	 edx, DWORD PTR _W$[ebp+edx]
  01a95	c1 ea 03	 shr	 edx, 3
  01a98	33 c2		 xor	 eax, edx
  01a9a	03 c8		 add	 ecx, eax
  01a9c	b8 04 00 00 00	 mov	 eax, 4
  01aa1	d1 e0		 shl	 eax, 1
  01aa3	03 8c 05 e4 fe
	ff ff		 add	 ecx, DWORD PTR _W$[ebp+eax]
  01aaa	89 8d bc fd ff
	ff		 mov	 DWORD PTR tv1277[ebp], ecx
  01ab0	b9 04 00 00 00	 mov	 ecx, 4
  01ab5	6b d1 12	 imul	 edx, ecx, 18
  01ab8	8b 85 bc fd ff
	ff		 mov	 eax, DWORD PTR tv1277[ebp]
  01abe	89 84 15 e4 fe
	ff ff		 mov	 DWORD PTR _W$[ebp+edx], eax
  01ac5	8b 8d b4 fe ff
	ff		 mov	 ecx, DWORD PTR _D$[ebp]
  01acb	33 8d a8 fe ff
	ff		 xor	 ecx, DWORD PTR _E$[ebp]
  01ad1	23 8d c0 fe ff
	ff		 and	 ecx, DWORD PTR _C$[ebp]
  01ad7	33 8d a8 fe ff
	ff		 xor	 ecx, DWORD PTR _E$[ebp]
  01add	8b 95 c0 fe ff
	ff		 mov	 edx, DWORD PTR _C$[ebp]
  01ae3	c1 e2 07	 shl	 edx, 7
  01ae6	8b 85 c0 fe ff
	ff		 mov	 eax, DWORD PTR _C$[ebp]
  01aec	c1 e8 19	 shr	 eax, 25			; 00000019H
  01aef	0b c2		 or	 eax, edx
  01af1	8b 95 c0 fe ff
	ff		 mov	 edx, DWORD PTR _C$[ebp]
  01af7	c1 e2 15	 shl	 edx, 21			; 00000015H
  01afa	8b b5 c0 fe ff
	ff		 mov	 esi, DWORD PTR _C$[ebp]
  01b00	c1 ee 0b	 shr	 esi, 11			; 0000000bH
  01b03	0b f2		 or	 esi, edx
  01b05	8b 95 c0 fe ff
	ff		 mov	 edx, DWORD PTR _C$[ebp]
  01b0b	c1 e2 1a	 shl	 edx, 26			; 0000001aH
  01b0e	8b bd c0 fe ff
	ff		 mov	 edi, DWORD PTR _C$[ebp]
  01b14	c1 ef 06	 shr	 edi, 6
  01b17	0b fa		 or	 edi, edx
  01b19	33 fe		 xor	 edi, esi
  01b1b	33 f8		 xor	 edi, eax
  01b1d	03 bd 9c fe ff
	ff		 add	 edi, DWORD PTR _F$[ebp]
  01b23	03 bd bc fd ff
	ff		 add	 edi, DWORD PTR tv1277[ebp]
  01b29	8d 84 39 c6 9d
	c1 0f		 lea	 eax, DWORD PTR [ecx+edi+264347078]
  01b30	89 45 f8	 mov	 DWORD PTR _temp1$[ebp], eax
  01b33	8b 85 90 fe ff
	ff		 mov	 eax, DWORD PTR _G$[ebp]
  01b39	c1 e8 02	 shr	 eax, 2
  01b3c	8b 8d 90 fe ff
	ff		 mov	 ecx, DWORD PTR _G$[ebp]
  01b42	c1 e1 1e	 shl	 ecx, 30			; 0000001eH
  01b45	0b c1		 or	 eax, ecx
  01b47	8b 95 90 fe ff
	ff		 mov	 edx, DWORD PTR _G$[ebp]
  01b4d	c1 ea 0d	 shr	 edx, 13			; 0000000dH
  01b50	8b 8d 90 fe ff
	ff		 mov	 ecx, DWORD PTR _G$[ebp]
  01b56	c1 e1 13	 shl	 ecx, 19			; 00000013H
  01b59	0b d1		 or	 edx, ecx
  01b5b	33 c2		 xor	 eax, edx
  01b5d	8b 95 90 fe ff
	ff		 mov	 edx, DWORD PTR _G$[ebp]
  01b63	c1 ea 16	 shr	 edx, 22			; 00000016H
  01b66	8b 8d 90 fe ff
	ff		 mov	 ecx, DWORD PTR _G$[ebp]
  01b6c	c1 e1 0a	 shl	 ecx, 10			; 0000000aH
  01b6f	0b d1		 or	 edx, ecx
  01b71	33 c2		 xor	 eax, edx
  01b73	8b 95 90 fe ff
	ff		 mov	 edx, DWORD PTR _G$[ebp]
  01b79	23 95 84 fe ff
	ff		 and	 edx, DWORD PTR _H$[ebp]
  01b7f	8b 8d 90 fe ff
	ff		 mov	 ecx, DWORD PTR _G$[ebp]
  01b85	0b 8d 84 fe ff
	ff		 or	 ecx, DWORD PTR _H$[ebp]
  01b8b	23 8d d8 fe ff
	ff		 and	 ecx, DWORD PTR _A$[ebp]
  01b91	0b d1		 or	 edx, ecx
  01b93	03 c2		 add	 eax, edx
  01b95	89 45 ec	 mov	 DWORD PTR _temp2$[ebp], eax
  01b98	8b 85 cc fe ff
	ff		 mov	 eax, DWORD PTR _B$[ebp]
  01b9e	03 45 f8	 add	 eax, DWORD PTR _temp1$[ebp]
  01ba1	89 85 cc fe ff
	ff		 mov	 DWORD PTR _B$[ebp], eax
  01ba7	8b 45 f8	 mov	 eax, DWORD PTR _temp1$[ebp]
  01baa	03 45 ec	 add	 eax, DWORD PTR _temp2$[ebp]
  01bad	89 85 9c fe ff
	ff		 mov	 DWORD PTR _F$[ebp], eax

; 133  :     P( F, G, H, A, B, C, D, E, R(19), 0x240CA1CC );

  01bb3	b8 04 00 00 00	 mov	 eax, 4
  01bb8	6b c8 11	 imul	 ecx, eax, 17
  01bbb	8b 94 0d e4 fe
	ff ff		 mov	 edx, DWORD PTR _W$[ebp+ecx]
  01bc2	c1 ea 11	 shr	 edx, 17			; 00000011H
  01bc5	b8 04 00 00 00	 mov	 eax, 4
  01bca	6b c8 11	 imul	 ecx, eax, 17
  01bcd	8b 84 0d e4 fe
	ff ff		 mov	 eax, DWORD PTR _W$[ebp+ecx]
  01bd4	c1 e0 0f	 shl	 eax, 15			; 0000000fH
  01bd7	0b d0		 or	 edx, eax
  01bd9	b9 04 00 00 00	 mov	 ecx, 4
  01bde	6b c1 11	 imul	 eax, ecx, 17
  01be1	8b 8c 05 e4 fe
	ff ff		 mov	 ecx, DWORD PTR _W$[ebp+eax]
  01be8	c1 e9 13	 shr	 ecx, 19			; 00000013H
  01beb	b8 04 00 00 00	 mov	 eax, 4
  01bf0	6b c0 11	 imul	 eax, eax, 17
  01bf3	8b 84 05 e4 fe
	ff ff		 mov	 eax, DWORD PTR _W$[ebp+eax]
  01bfa	c1 e0 0d	 shl	 eax, 13			; 0000000dH
  01bfd	0b c8		 or	 ecx, eax
  01bff	33 d1		 xor	 edx, ecx
  01c01	b9 04 00 00 00	 mov	 ecx, 4
  01c06	6b c1 11	 imul	 eax, ecx, 17
  01c09	8b 8c 05 e4 fe
	ff ff		 mov	 ecx, DWORD PTR _W$[ebp+eax]
  01c10	c1 e9 0a	 shr	 ecx, 10			; 0000000aH
  01c13	33 d1		 xor	 edx, ecx
  01c15	b8 04 00 00 00	 mov	 eax, 4
  01c1a	6b c8 0c	 imul	 ecx, eax, 12
  01c1d	03 94 0d e4 fe
	ff ff		 add	 edx, DWORD PTR _W$[ebp+ecx]
  01c24	b8 04 00 00 00	 mov	 eax, 4
  01c29	c1 e0 02	 shl	 eax, 2
  01c2c	8b 8c 05 e4 fe
	ff ff		 mov	 ecx, DWORD PTR _W$[ebp+eax]
  01c33	c1 e9 07	 shr	 ecx, 7
  01c36	b8 04 00 00 00	 mov	 eax, 4
  01c3b	c1 e0 02	 shl	 eax, 2
  01c3e	8b 84 05 e4 fe
	ff ff		 mov	 eax, DWORD PTR _W$[ebp+eax]
  01c45	c1 e0 19	 shl	 eax, 25			; 00000019H
  01c48	0b c8		 or	 ecx, eax
  01c4a	b8 04 00 00 00	 mov	 eax, 4
  01c4f	c1 e0 02	 shl	 eax, 2
  01c52	8b 84 05 e4 fe
	ff ff		 mov	 eax, DWORD PTR _W$[ebp+eax]
  01c59	c1 e8 12	 shr	 eax, 18			; 00000012H
  01c5c	be 04 00 00 00	 mov	 esi, 4
  01c61	c1 e6 02	 shl	 esi, 2
  01c64	8b b4 35 e4 fe
	ff ff		 mov	 esi, DWORD PTR _W$[ebp+esi]
  01c6b	c1 e6 0e	 shl	 esi, 14			; 0000000eH
  01c6e	0b c6		 or	 eax, esi
  01c70	33 c8		 xor	 ecx, eax
  01c72	b8 04 00 00 00	 mov	 eax, 4
  01c77	c1 e0 02	 shl	 eax, 2
  01c7a	8b 84 05 e4 fe
	ff ff		 mov	 eax, DWORD PTR _W$[ebp+eax]
  01c81	c1 e8 03	 shr	 eax, 3
  01c84	33 c8		 xor	 ecx, eax
  01c86	03 d1		 add	 edx, ecx
  01c88	b9 04 00 00 00	 mov	 ecx, 4
  01c8d	6b c1 03	 imul	 eax, ecx, 3
  01c90	03 94 05 e4 fe
	ff ff		 add	 edx, DWORD PTR _W$[ebp+eax]
  01c97	89 95 bc fd ff
	ff		 mov	 DWORD PTR tv1360[ebp], edx
  01c9d	b9 04 00 00 00	 mov	 ecx, 4
  01ca2	6b d1 13	 imul	 edx, ecx, 19
  01ca5	8b 85 bc fd ff
	ff		 mov	 eax, DWORD PTR tv1360[ebp]
  01cab	89 84 15 e4 fe
	ff ff		 mov	 DWORD PTR _W$[ebp+edx], eax
  01cb2	8b 8d c0 fe ff
	ff		 mov	 ecx, DWORD PTR _C$[ebp]
  01cb8	33 8d b4 fe ff
	ff		 xor	 ecx, DWORD PTR _D$[ebp]
  01cbe	23 8d cc fe ff
	ff		 and	 ecx, DWORD PTR _B$[ebp]
  01cc4	33 8d b4 fe ff
	ff		 xor	 ecx, DWORD PTR _D$[ebp]
  01cca	8b 95 cc fe ff
	ff		 mov	 edx, DWORD PTR _B$[ebp]
  01cd0	c1 e2 07	 shl	 edx, 7
  01cd3	8b 85 cc fe ff
	ff		 mov	 eax, DWORD PTR _B$[ebp]
  01cd9	c1 e8 19	 shr	 eax, 25			; 00000019H
  01cdc	0b c2		 or	 eax, edx
  01cde	8b 95 cc fe ff
	ff		 mov	 edx, DWORD PTR _B$[ebp]
  01ce4	c1 e2 15	 shl	 edx, 21			; 00000015H
  01ce7	8b b5 cc fe ff
	ff		 mov	 esi, DWORD PTR _B$[ebp]
  01ced	c1 ee 0b	 shr	 esi, 11			; 0000000bH
  01cf0	0b f2		 or	 esi, edx
  01cf2	8b 95 cc fe ff
	ff		 mov	 edx, DWORD PTR _B$[ebp]
  01cf8	c1 e2 1a	 shl	 edx, 26			; 0000001aH
  01cfb	8b bd cc fe ff
	ff		 mov	 edi, DWORD PTR _B$[ebp]
  01d01	c1 ef 06	 shr	 edi, 6
  01d04	0b fa		 or	 edi, edx
  01d06	33 fe		 xor	 edi, esi
  01d08	33 f8		 xor	 edi, eax
  01d0a	03 bd a8 fe ff
	ff		 add	 edi, DWORD PTR _E$[ebp]
  01d10	03 bd bc fd ff
	ff		 add	 edi, DWORD PTR tv1360[ebp]
  01d16	8d 84 39 cc a1
	0c 24		 lea	 eax, DWORD PTR [ecx+edi+604807628]
  01d1d	89 45 f8	 mov	 DWORD PTR _temp1$[ebp], eax
  01d20	8b 85 9c fe ff
	ff		 mov	 eax, DWORD PTR _F$[ebp]
  01d26	c1 e8 02	 shr	 eax, 2
  01d29	8b 8d 9c fe ff
	ff		 mov	 ecx, DWORD PTR _F$[ebp]
  01d2f	c1 e1 1e	 shl	 ecx, 30			; 0000001eH
  01d32	0b c1		 or	 eax, ecx
  01d34	8b 95 9c fe ff
	ff		 mov	 edx, DWORD PTR _F$[ebp]
  01d3a	c1 ea 0d	 shr	 edx, 13			; 0000000dH
  01d3d	8b 8d 9c fe ff
	ff		 mov	 ecx, DWORD PTR _F$[ebp]
  01d43	c1 e1 13	 shl	 ecx, 19			; 00000013H
  01d46	0b d1		 or	 edx, ecx
  01d48	33 c2		 xor	 eax, edx
  01d4a	8b 95 9c fe ff
	ff		 mov	 edx, DWORD PTR _F$[ebp]
  01d50	c1 ea 16	 shr	 edx, 22			; 00000016H
  01d53	8b 8d 9c fe ff
	ff		 mov	 ecx, DWORD PTR _F$[ebp]
  01d59	c1 e1 0a	 shl	 ecx, 10			; 0000000aH
  01d5c	0b d1		 or	 edx, ecx
  01d5e	33 c2		 xor	 eax, edx
  01d60	8b 95 9c fe ff
	ff		 mov	 edx, DWORD PTR _F$[ebp]
  01d66	23 95 90 fe ff
	ff		 and	 edx, DWORD PTR _G$[ebp]
  01d6c	8b 8d 9c fe ff
	ff		 mov	 ecx, DWORD PTR _F$[ebp]
  01d72	0b 8d 90 fe ff
	ff		 or	 ecx, DWORD PTR _G$[ebp]
  01d78	23 8d 84 fe ff
	ff		 and	 ecx, DWORD PTR _H$[ebp]
  01d7e	0b d1		 or	 edx, ecx
  01d80	03 c2		 add	 eax, edx
  01d82	89 45 ec	 mov	 DWORD PTR _temp2$[ebp], eax
  01d85	8b 85 d8 fe ff
	ff		 mov	 eax, DWORD PTR _A$[ebp]
  01d8b	03 45 f8	 add	 eax, DWORD PTR _temp1$[ebp]
  01d8e	89 85 d8 fe ff
	ff		 mov	 DWORD PTR _A$[ebp], eax
  01d94	8b 45 f8	 mov	 eax, DWORD PTR _temp1$[ebp]
  01d97	03 45 ec	 add	 eax, DWORD PTR _temp2$[ebp]
  01d9a	89 85 a8 fe ff
	ff		 mov	 DWORD PTR _E$[ebp], eax

; 134  :     P( E, F, G, H, A, B, C, D, R(20), 0x2DE92C6F );

  01da0	b8 04 00 00 00	 mov	 eax, 4
  01da5	6b c8 12	 imul	 ecx, eax, 18
  01da8	8b 94 0d e4 fe
	ff ff		 mov	 edx, DWORD PTR _W$[ebp+ecx]
  01daf	c1 ea 11	 shr	 edx, 17			; 00000011H
  01db2	b8 04 00 00 00	 mov	 eax, 4
  01db7	6b c8 12	 imul	 ecx, eax, 18
  01dba	8b 84 0d e4 fe
	ff ff		 mov	 eax, DWORD PTR _W$[ebp+ecx]
  01dc1	c1 e0 0f	 shl	 eax, 15			; 0000000fH
  01dc4	0b d0		 or	 edx, eax
  01dc6	b9 04 00 00 00	 mov	 ecx, 4
  01dcb	6b c1 12	 imul	 eax, ecx, 18
  01dce	8b 8c 05 e4 fe
	ff ff		 mov	 ecx, DWORD PTR _W$[ebp+eax]
  01dd5	c1 e9 13	 shr	 ecx, 19			; 00000013H
  01dd8	b8 04 00 00 00	 mov	 eax, 4
  01ddd	6b c0 12	 imul	 eax, eax, 18
  01de0	8b 84 05 e4 fe
	ff ff		 mov	 eax, DWORD PTR _W$[ebp+eax]
  01de7	c1 e0 0d	 shl	 eax, 13			; 0000000dH
  01dea	0b c8		 or	 ecx, eax
  01dec	33 d1		 xor	 edx, ecx
  01dee	b9 04 00 00 00	 mov	 ecx, 4
  01df3	6b c1 12	 imul	 eax, ecx, 18
  01df6	8b 8c 05 e4 fe
	ff ff		 mov	 ecx, DWORD PTR _W$[ebp+eax]
  01dfd	c1 e9 0a	 shr	 ecx, 10			; 0000000aH
  01e00	33 d1		 xor	 edx, ecx
  01e02	b8 04 00 00 00	 mov	 eax, 4
  01e07	6b c8 0d	 imul	 ecx, eax, 13
  01e0a	03 94 0d e4 fe
	ff ff		 add	 edx, DWORD PTR _W$[ebp+ecx]
  01e11	b8 04 00 00 00	 mov	 eax, 4
  01e16	6b c8 05	 imul	 ecx, eax, 5
  01e19	8b 84 0d e4 fe
	ff ff		 mov	 eax, DWORD PTR _W$[ebp+ecx]
  01e20	c1 e8 07	 shr	 eax, 7
  01e23	b9 04 00 00 00	 mov	 ecx, 4
  01e28	6b c9 05	 imul	 ecx, ecx, 5
  01e2b	8b 8c 0d e4 fe
	ff ff		 mov	 ecx, DWORD PTR _W$[ebp+ecx]
  01e32	c1 e1 19	 shl	 ecx, 25			; 00000019H
  01e35	0b c1		 or	 eax, ecx
  01e37	b9 04 00 00 00	 mov	 ecx, 4
  01e3c	6b c9 05	 imul	 ecx, ecx, 5
  01e3f	8b 8c 0d e4 fe
	ff ff		 mov	 ecx, DWORD PTR _W$[ebp+ecx]
  01e46	c1 e9 12	 shr	 ecx, 18			; 00000012H
  01e49	be 04 00 00 00	 mov	 esi, 4
  01e4e	6b f6 05	 imul	 esi, esi, 5
  01e51	8b b4 35 e4 fe
	ff ff		 mov	 esi, DWORD PTR _W$[ebp+esi]
  01e58	c1 e6 0e	 shl	 esi, 14			; 0000000eH
  01e5b	0b ce		 or	 ecx, esi
  01e5d	33 c1		 xor	 eax, ecx
  01e5f	b9 04 00 00 00	 mov	 ecx, 4
  01e64	6b c9 05	 imul	 ecx, ecx, 5
  01e67	8b 8c 0d e4 fe
	ff ff		 mov	 ecx, DWORD PTR _W$[ebp+ecx]
  01e6e	c1 e9 03	 shr	 ecx, 3
  01e71	33 c1		 xor	 eax, ecx
  01e73	03 d0		 add	 edx, eax
  01e75	b8 04 00 00 00	 mov	 eax, 4
  01e7a	c1 e0 02	 shl	 eax, 2
  01e7d	03 94 05 e4 fe
	ff ff		 add	 edx, DWORD PTR _W$[ebp+eax]
  01e84	89 95 bc fd ff
	ff		 mov	 DWORD PTR tv1443[ebp], edx
  01e8a	b9 04 00 00 00	 mov	 ecx, 4
  01e8f	6b d1 14	 imul	 edx, ecx, 20
  01e92	8b 85 bc fd ff
	ff		 mov	 eax, DWORD PTR tv1443[ebp]
  01e98	89 84 15 e4 fe
	ff ff		 mov	 DWORD PTR _W$[ebp+edx], eax
  01e9f	8b 8d cc fe ff
	ff		 mov	 ecx, DWORD PTR _B$[ebp]
  01ea5	33 8d c0 fe ff
	ff		 xor	 ecx, DWORD PTR _C$[ebp]
  01eab	23 8d d8 fe ff
	ff		 and	 ecx, DWORD PTR _A$[ebp]
  01eb1	33 8d c0 fe ff
	ff		 xor	 ecx, DWORD PTR _C$[ebp]
  01eb7	8b 95 d8 fe ff
	ff		 mov	 edx, DWORD PTR _A$[ebp]
  01ebd	c1 e2 07	 shl	 edx, 7
  01ec0	8b 85 d8 fe ff
	ff		 mov	 eax, DWORD PTR _A$[ebp]
  01ec6	c1 e8 19	 shr	 eax, 25			; 00000019H
  01ec9	0b c2		 or	 eax, edx
  01ecb	8b 95 d8 fe ff
	ff		 mov	 edx, DWORD PTR _A$[ebp]
  01ed1	c1 e2 15	 shl	 edx, 21			; 00000015H
  01ed4	8b b5 d8 fe ff
	ff		 mov	 esi, DWORD PTR _A$[ebp]
  01eda	c1 ee 0b	 shr	 esi, 11			; 0000000bH
  01edd	0b f2		 or	 esi, edx
  01edf	8b 95 d8 fe ff
	ff		 mov	 edx, DWORD PTR _A$[ebp]
  01ee5	c1 e2 1a	 shl	 edx, 26			; 0000001aH
  01ee8	8b bd d8 fe ff
	ff		 mov	 edi, DWORD PTR _A$[ebp]
  01eee	c1 ef 06	 shr	 edi, 6
  01ef1	0b fa		 or	 edi, edx
  01ef3	33 fe		 xor	 edi, esi
  01ef5	33 f8		 xor	 edi, eax
  01ef7	03 bd b4 fe ff
	ff		 add	 edi, DWORD PTR _D$[ebp]
  01efd	03 bd bc fd ff
	ff		 add	 edi, DWORD PTR tv1443[ebp]
  01f03	8d 84 39 6f 2c
	e9 2d		 lea	 eax, DWORD PTR [ecx+edi+770255983]
  01f0a	89 45 f8	 mov	 DWORD PTR _temp1$[ebp], eax
  01f0d	8b 85 a8 fe ff
	ff		 mov	 eax, DWORD PTR _E$[ebp]
  01f13	c1 e8 02	 shr	 eax, 2
  01f16	8b 8d a8 fe ff
	ff		 mov	 ecx, DWORD PTR _E$[ebp]
  01f1c	c1 e1 1e	 shl	 ecx, 30			; 0000001eH
  01f1f	0b c1		 or	 eax, ecx
  01f21	8b 95 a8 fe ff
	ff		 mov	 edx, DWORD PTR _E$[ebp]
  01f27	c1 ea 0d	 shr	 edx, 13			; 0000000dH
  01f2a	8b 8d a8 fe ff
	ff		 mov	 ecx, DWORD PTR _E$[ebp]
  01f30	c1 e1 13	 shl	 ecx, 19			; 00000013H
  01f33	0b d1		 or	 edx, ecx
  01f35	33 c2		 xor	 eax, edx
  01f37	8b 95 a8 fe ff
	ff		 mov	 edx, DWORD PTR _E$[ebp]
  01f3d	c1 ea 16	 shr	 edx, 22			; 00000016H
  01f40	8b 8d a8 fe ff
	ff		 mov	 ecx, DWORD PTR _E$[ebp]
  01f46	c1 e1 0a	 shl	 ecx, 10			; 0000000aH
  01f49	0b d1		 or	 edx, ecx
  01f4b	33 c2		 xor	 eax, edx
  01f4d	8b 95 a8 fe ff
	ff		 mov	 edx, DWORD PTR _E$[ebp]
  01f53	23 95 9c fe ff
	ff		 and	 edx, DWORD PTR _F$[ebp]
  01f59	8b 8d a8 fe ff
	ff		 mov	 ecx, DWORD PTR _E$[ebp]
  01f5f	0b 8d 9c fe ff
	ff		 or	 ecx, DWORD PTR _F$[ebp]
  01f65	23 8d 90 fe ff
	ff		 and	 ecx, DWORD PTR _G$[ebp]
  01f6b	0b d1		 or	 edx, ecx
  01f6d	03 c2		 add	 eax, edx
  01f6f	89 45 ec	 mov	 DWORD PTR _temp2$[ebp], eax
  01f72	8b 85 84 fe ff
	ff		 mov	 eax, DWORD PTR _H$[ebp]
  01f78	03 45 f8	 add	 eax, DWORD PTR _temp1$[ebp]
  01f7b	89 85 84 fe ff
	ff		 mov	 DWORD PTR _H$[ebp], eax
  01f81	8b 45 f8	 mov	 eax, DWORD PTR _temp1$[ebp]
  01f84	03 45 ec	 add	 eax, DWORD PTR _temp2$[ebp]
  01f87	89 85 b4 fe ff
	ff		 mov	 DWORD PTR _D$[ebp], eax

; 135  :     P( D, E, F, G, H, A, B, C, R(21), 0x4A7484AA );

  01f8d	b8 04 00 00 00	 mov	 eax, 4
  01f92	6b c8 13	 imul	 ecx, eax, 19
  01f95	8b 94 0d e4 fe
	ff ff		 mov	 edx, DWORD PTR _W$[ebp+ecx]
  01f9c	c1 ea 11	 shr	 edx, 17			; 00000011H
  01f9f	b8 04 00 00 00	 mov	 eax, 4
  01fa4	6b c8 13	 imul	 ecx, eax, 19
  01fa7	8b 84 0d e4 fe
	ff ff		 mov	 eax, DWORD PTR _W$[ebp+ecx]
  01fae	c1 e0 0f	 shl	 eax, 15			; 0000000fH
  01fb1	0b d0		 or	 edx, eax
  01fb3	b9 04 00 00 00	 mov	 ecx, 4
  01fb8	6b c1 13	 imul	 eax, ecx, 19
  01fbb	8b 8c 05 e4 fe
	ff ff		 mov	 ecx, DWORD PTR _W$[ebp+eax]
  01fc2	c1 e9 13	 shr	 ecx, 19			; 00000013H
  01fc5	b8 04 00 00 00	 mov	 eax, 4
  01fca	6b c0 13	 imul	 eax, eax, 19
  01fcd	8b 84 05 e4 fe
	ff ff		 mov	 eax, DWORD PTR _W$[ebp+eax]
  01fd4	c1 e0 0d	 shl	 eax, 13			; 0000000dH
  01fd7	0b c8		 or	 ecx, eax
  01fd9	33 d1		 xor	 edx, ecx
  01fdb	b9 04 00 00 00	 mov	 ecx, 4
  01fe0	6b c1 13	 imul	 eax, ecx, 19
  01fe3	8b 8c 05 e4 fe
	ff ff		 mov	 ecx, DWORD PTR _W$[ebp+eax]
  01fea	c1 e9 0a	 shr	 ecx, 10			; 0000000aH
  01fed	33 d1		 xor	 edx, ecx
  01fef	b8 04 00 00 00	 mov	 eax, 4
  01ff4	6b c8 0e	 imul	 ecx, eax, 14
  01ff7	03 94 0d e4 fe
	ff ff		 add	 edx, DWORD PTR _W$[ebp+ecx]
  01ffe	b8 04 00 00 00	 mov	 eax, 4
  02003	6b c8 06	 imul	 ecx, eax, 6
  02006	8b 84 0d e4 fe
	ff ff		 mov	 eax, DWORD PTR _W$[ebp+ecx]
  0200d	c1 e8 07	 shr	 eax, 7
  02010	b9 04 00 00 00	 mov	 ecx, 4
  02015	6b c9 06	 imul	 ecx, ecx, 6
  02018	8b 8c 0d e4 fe
	ff ff		 mov	 ecx, DWORD PTR _W$[ebp+ecx]
  0201f	c1 e1 19	 shl	 ecx, 25			; 00000019H
  02022	0b c1		 or	 eax, ecx
  02024	b9 04 00 00 00	 mov	 ecx, 4
  02029	6b c9 06	 imul	 ecx, ecx, 6
  0202c	8b 8c 0d e4 fe
	ff ff		 mov	 ecx, DWORD PTR _W$[ebp+ecx]
  02033	c1 e9 12	 shr	 ecx, 18			; 00000012H
  02036	be 04 00 00 00	 mov	 esi, 4
  0203b	6b f6 06	 imul	 esi, esi, 6
  0203e	8b b4 35 e4 fe
	ff ff		 mov	 esi, DWORD PTR _W$[ebp+esi]
  02045	c1 e6 0e	 shl	 esi, 14			; 0000000eH
  02048	0b ce		 or	 ecx, esi
  0204a	33 c1		 xor	 eax, ecx
  0204c	b9 04 00 00 00	 mov	 ecx, 4
  02051	6b c9 06	 imul	 ecx, ecx, 6
  02054	8b 8c 0d e4 fe
	ff ff		 mov	 ecx, DWORD PTR _W$[ebp+ecx]
  0205b	c1 e9 03	 shr	 ecx, 3
  0205e	33 c1		 xor	 eax, ecx
  02060	03 d0		 add	 edx, eax
  02062	b8 04 00 00 00	 mov	 eax, 4
  02067	6b c8 05	 imul	 ecx, eax, 5
  0206a	03 94 0d e4 fe
	ff ff		 add	 edx, DWORD PTR _W$[ebp+ecx]
  02071	89 95 bc fd ff
	ff		 mov	 DWORD PTR tv1526[ebp], edx
  02077	ba 04 00 00 00	 mov	 edx, 4
  0207c	6b c2 15	 imul	 eax, edx, 21
  0207f	8b 8d bc fd ff
	ff		 mov	 ecx, DWORD PTR tv1526[ebp]
  02085	89 8c 05 e4 fe
	ff ff		 mov	 DWORD PTR _W$[ebp+eax], ecx
  0208c	8b 95 d8 fe ff
	ff		 mov	 edx, DWORD PTR _A$[ebp]
  02092	33 95 cc fe ff
	ff		 xor	 edx, DWORD PTR _B$[ebp]
  02098	23 95 84 fe ff
	ff		 and	 edx, DWORD PTR _H$[ebp]
  0209e	33 95 cc fe ff
	ff		 xor	 edx, DWORD PTR _B$[ebp]
  020a4	8b 85 84 fe ff
	ff		 mov	 eax, DWORD PTR _H$[ebp]
  020aa	c1 e0 07	 shl	 eax, 7
  020ad	8b 8d 84 fe ff
	ff		 mov	 ecx, DWORD PTR _H$[ebp]
  020b3	c1 e9 19	 shr	 ecx, 25			; 00000019H
  020b6	0b c8		 or	 ecx, eax
  020b8	8b 85 84 fe ff
	ff		 mov	 eax, DWORD PTR _H$[ebp]
  020be	c1 e0 15	 shl	 eax, 21			; 00000015H
  020c1	8b b5 84 fe ff
	ff		 mov	 esi, DWORD PTR _H$[ebp]
  020c7	c1 ee 0b	 shr	 esi, 11			; 0000000bH
  020ca	0b f0		 or	 esi, eax
  020cc	8b 85 84 fe ff
	ff		 mov	 eax, DWORD PTR _H$[ebp]
  020d2	c1 e0 1a	 shl	 eax, 26			; 0000001aH
  020d5	8b bd 84 fe ff
	ff		 mov	 edi, DWORD PTR _H$[ebp]
  020db	c1 ef 06	 shr	 edi, 6
  020de	0b f8		 or	 edi, eax
  020e0	33 fe		 xor	 edi, esi
  020e2	33 f9		 xor	 edi, ecx
  020e4	03 bd c0 fe ff
	ff		 add	 edi, DWORD PTR _C$[ebp]
  020ea	03 bd bc fd ff
	ff		 add	 edi, DWORD PTR tv1526[ebp]
  020f0	8d 8c 3a aa 84
	74 4a		 lea	 ecx, DWORD PTR [edx+edi+1249150122]
  020f7	89 4d f8	 mov	 DWORD PTR _temp1$[ebp], ecx
  020fa	8b 85 b4 fe ff
	ff		 mov	 eax, DWORD PTR _D$[ebp]
  02100	c1 e8 02	 shr	 eax, 2
  02103	8b 8d b4 fe ff
	ff		 mov	 ecx, DWORD PTR _D$[ebp]
  02109	c1 e1 1e	 shl	 ecx, 30			; 0000001eH
  0210c	0b c1		 or	 eax, ecx
  0210e	8b 95 b4 fe ff
	ff		 mov	 edx, DWORD PTR _D$[ebp]
  02114	c1 ea 0d	 shr	 edx, 13			; 0000000dH
  02117	8b 8d b4 fe ff
	ff		 mov	 ecx, DWORD PTR _D$[ebp]
  0211d	c1 e1 13	 shl	 ecx, 19			; 00000013H
  02120	0b d1		 or	 edx, ecx
  02122	33 c2		 xor	 eax, edx
  02124	8b 95 b4 fe ff
	ff		 mov	 edx, DWORD PTR _D$[ebp]
  0212a	c1 ea 16	 shr	 edx, 22			; 00000016H
  0212d	8b 8d b4 fe ff
	ff		 mov	 ecx, DWORD PTR _D$[ebp]
  02133	c1 e1 0a	 shl	 ecx, 10			; 0000000aH
  02136	0b d1		 or	 edx, ecx
  02138	33 c2		 xor	 eax, edx
  0213a	8b 95 b4 fe ff
	ff		 mov	 edx, DWORD PTR _D$[ebp]
  02140	23 95 a8 fe ff
	ff		 and	 edx, DWORD PTR _E$[ebp]
  02146	8b 8d b4 fe ff
	ff		 mov	 ecx, DWORD PTR _D$[ebp]
  0214c	0b 8d a8 fe ff
	ff		 or	 ecx, DWORD PTR _E$[ebp]
  02152	23 8d 9c fe ff
	ff		 and	 ecx, DWORD PTR _F$[ebp]
  02158	0b d1		 or	 edx, ecx
  0215a	03 c2		 add	 eax, edx
  0215c	89 45 ec	 mov	 DWORD PTR _temp2$[ebp], eax
  0215f	8b 85 90 fe ff
	ff		 mov	 eax, DWORD PTR _G$[ebp]
  02165	03 45 f8	 add	 eax, DWORD PTR _temp1$[ebp]
  02168	89 85 90 fe ff
	ff		 mov	 DWORD PTR _G$[ebp], eax
  0216e	8b 45 f8	 mov	 eax, DWORD PTR _temp1$[ebp]
  02171	03 45 ec	 add	 eax, DWORD PTR _temp2$[ebp]
  02174	89 85 c0 fe ff
	ff		 mov	 DWORD PTR _C$[ebp], eax

; 136  :     P( C, D, E, F, G, H, A, B, R(22), 0x5CB0A9DC );

  0217a	b8 04 00 00 00	 mov	 eax, 4
  0217f	6b c8 14	 imul	 ecx, eax, 20
  02182	8b 94 0d e4 fe
	ff ff		 mov	 edx, DWORD PTR _W$[ebp+ecx]
  02189	c1 ea 11	 shr	 edx, 17			; 00000011H
  0218c	b8 04 00 00 00	 mov	 eax, 4
  02191	6b c8 14	 imul	 ecx, eax, 20
  02194	8b 84 0d e4 fe
	ff ff		 mov	 eax, DWORD PTR _W$[ebp+ecx]
  0219b	c1 e0 0f	 shl	 eax, 15			; 0000000fH
  0219e	0b d0		 or	 edx, eax
  021a0	b9 04 00 00 00	 mov	 ecx, 4
  021a5	6b c1 14	 imul	 eax, ecx, 20
  021a8	8b 8c 05 e4 fe
	ff ff		 mov	 ecx, DWORD PTR _W$[ebp+eax]
  021af	c1 e9 13	 shr	 ecx, 19			; 00000013H
  021b2	b8 04 00 00 00	 mov	 eax, 4
  021b7	6b c0 14	 imul	 eax, eax, 20
  021ba	8b 84 05 e4 fe
	ff ff		 mov	 eax, DWORD PTR _W$[ebp+eax]
  021c1	c1 e0 0d	 shl	 eax, 13			; 0000000dH
  021c4	0b c8		 or	 ecx, eax
  021c6	33 d1		 xor	 edx, ecx
  021c8	b9 04 00 00 00	 mov	 ecx, 4
  021cd	6b c1 14	 imul	 eax, ecx, 20
  021d0	8b 8c 05 e4 fe
	ff ff		 mov	 ecx, DWORD PTR _W$[ebp+eax]
  021d7	c1 e9 0a	 shr	 ecx, 10			; 0000000aH
  021da	33 d1		 xor	 edx, ecx
  021dc	b8 04 00 00 00	 mov	 eax, 4
  021e1	6b c8 0f	 imul	 ecx, eax, 15
  021e4	03 94 0d e4 fe
	ff ff		 add	 edx, DWORD PTR _W$[ebp+ecx]
  021eb	b8 04 00 00 00	 mov	 eax, 4
  021f0	6b c8 07	 imul	 ecx, eax, 7
  021f3	8b 84 0d e4 fe
	ff ff		 mov	 eax, DWORD PTR _W$[ebp+ecx]
  021fa	c1 e8 07	 shr	 eax, 7
  021fd	b9 04 00 00 00	 mov	 ecx, 4
  02202	6b c9 07	 imul	 ecx, ecx, 7
  02205	8b 8c 0d e4 fe
	ff ff		 mov	 ecx, DWORD PTR _W$[ebp+ecx]
  0220c	c1 e1 19	 shl	 ecx, 25			; 00000019H
  0220f	0b c1		 or	 eax, ecx
  02211	b9 04 00 00 00	 mov	 ecx, 4
  02216	6b c9 07	 imul	 ecx, ecx, 7
  02219	8b 8c 0d e4 fe
	ff ff		 mov	 ecx, DWORD PTR _W$[ebp+ecx]
  02220	c1 e9 12	 shr	 ecx, 18			; 00000012H
  02223	be 04 00 00 00	 mov	 esi, 4
  02228	6b f6 07	 imul	 esi, esi, 7
  0222b	8b b4 35 e4 fe
	ff ff		 mov	 esi, DWORD PTR _W$[ebp+esi]
  02232	c1 e6 0e	 shl	 esi, 14			; 0000000eH
  02235	0b ce		 or	 ecx, esi
  02237	33 c1		 xor	 eax, ecx
  02239	b9 04 00 00 00	 mov	 ecx, 4
  0223e	6b c9 07	 imul	 ecx, ecx, 7
  02241	8b 8c 0d e4 fe
	ff ff		 mov	 ecx, DWORD PTR _W$[ebp+ecx]
  02248	c1 e9 03	 shr	 ecx, 3
  0224b	33 c1		 xor	 eax, ecx
  0224d	03 d0		 add	 edx, eax
  0224f	b8 04 00 00 00	 mov	 eax, 4
  02254	6b c8 06	 imul	 ecx, eax, 6
  02257	03 94 0d e4 fe
	ff ff		 add	 edx, DWORD PTR _W$[ebp+ecx]
  0225e	89 95 bc fd ff
	ff		 mov	 DWORD PTR tv1609[ebp], edx
  02264	ba 04 00 00 00	 mov	 edx, 4
  02269	6b c2 16	 imul	 eax, edx, 22
  0226c	8b 8d bc fd ff
	ff		 mov	 ecx, DWORD PTR tv1609[ebp]
  02272	89 8c 05 e4 fe
	ff ff		 mov	 DWORD PTR _W$[ebp+eax], ecx
  02279	8b 95 84 fe ff
	ff		 mov	 edx, DWORD PTR _H$[ebp]
  0227f	33 95 d8 fe ff
	ff		 xor	 edx, DWORD PTR _A$[ebp]
  02285	23 95 90 fe ff
	ff		 and	 edx, DWORD PTR _G$[ebp]
  0228b	33 95 d8 fe ff
	ff		 xor	 edx, DWORD PTR _A$[ebp]
  02291	8b 85 90 fe ff
	ff		 mov	 eax, DWORD PTR _G$[ebp]
  02297	c1 e0 07	 shl	 eax, 7
  0229a	8b 8d 90 fe ff
	ff		 mov	 ecx, DWORD PTR _G$[ebp]
  022a0	c1 e9 19	 shr	 ecx, 25			; 00000019H
  022a3	0b c8		 or	 ecx, eax
  022a5	8b 85 90 fe ff
	ff		 mov	 eax, DWORD PTR _G$[ebp]
  022ab	c1 e0 15	 shl	 eax, 21			; 00000015H
  022ae	8b b5 90 fe ff
	ff		 mov	 esi, DWORD PTR _G$[ebp]
  022b4	c1 ee 0b	 shr	 esi, 11			; 0000000bH
  022b7	0b f0		 or	 esi, eax
  022b9	8b 85 90 fe ff
	ff		 mov	 eax, DWORD PTR _G$[ebp]
  022bf	c1 e0 1a	 shl	 eax, 26			; 0000001aH
  022c2	8b bd 90 fe ff
	ff		 mov	 edi, DWORD PTR _G$[ebp]
  022c8	c1 ef 06	 shr	 edi, 6
  022cb	0b f8		 or	 edi, eax
  022cd	33 fe		 xor	 edi, esi
  022cf	33 f9		 xor	 edi, ecx
  022d1	03 bd cc fe ff
	ff		 add	 edi, DWORD PTR _B$[ebp]
  022d7	03 bd bc fd ff
	ff		 add	 edi, DWORD PTR tv1609[ebp]
  022dd	8d 8c 3a dc a9
	b0 5c		 lea	 ecx, DWORD PTR [edx+edi+1555081692]
  022e4	89 4d f8	 mov	 DWORD PTR _temp1$[ebp], ecx
  022e7	8b 85 c0 fe ff
	ff		 mov	 eax, DWORD PTR _C$[ebp]
  022ed	c1 e8 02	 shr	 eax, 2
  022f0	8b 8d c0 fe ff
	ff		 mov	 ecx, DWORD PTR _C$[ebp]
  022f6	c1 e1 1e	 shl	 ecx, 30			; 0000001eH
  022f9	0b c1		 or	 eax, ecx
  022fb	8b 95 c0 fe ff
	ff		 mov	 edx, DWORD PTR _C$[ebp]
  02301	c1 ea 0d	 shr	 edx, 13			; 0000000dH
  02304	8b 8d c0 fe ff
	ff		 mov	 ecx, DWORD PTR _C$[ebp]
  0230a	c1 e1 13	 shl	 ecx, 19			; 00000013H
  0230d	0b d1		 or	 edx, ecx
  0230f	33 c2		 xor	 eax, edx
  02311	8b 95 c0 fe ff
	ff		 mov	 edx, DWORD PTR _C$[ebp]
  02317	c1 ea 16	 shr	 edx, 22			; 00000016H
  0231a	8b 8d c0 fe ff
	ff		 mov	 ecx, DWORD PTR _C$[ebp]
  02320	c1 e1 0a	 shl	 ecx, 10			; 0000000aH
  02323	0b d1		 or	 edx, ecx
  02325	33 c2		 xor	 eax, edx
  02327	8b 95 c0 fe ff
	ff		 mov	 edx, DWORD PTR _C$[ebp]
  0232d	23 95 b4 fe ff
	ff		 and	 edx, DWORD PTR _D$[ebp]
  02333	8b 8d c0 fe ff
	ff		 mov	 ecx, DWORD PTR _C$[ebp]
  02339	0b 8d b4 fe ff
	ff		 or	 ecx, DWORD PTR _D$[ebp]
  0233f	23 8d a8 fe ff
	ff		 and	 ecx, DWORD PTR _E$[ebp]
  02345	0b d1		 or	 edx, ecx
  02347	03 c2		 add	 eax, edx
  02349	89 45 ec	 mov	 DWORD PTR _temp2$[ebp], eax
  0234c	8b 85 9c fe ff
	ff		 mov	 eax, DWORD PTR _F$[ebp]
  02352	03 45 f8	 add	 eax, DWORD PTR _temp1$[ebp]
  02355	89 85 9c fe ff
	ff		 mov	 DWORD PTR _F$[ebp], eax
  0235b	8b 45 f8	 mov	 eax, DWORD PTR _temp1$[ebp]
  0235e	03 45 ec	 add	 eax, DWORD PTR _temp2$[ebp]
  02361	89 85 cc fe ff
	ff		 mov	 DWORD PTR _B$[ebp], eax

; 137  :     P( B, C, D, E, F, G, H, A, R(23), 0x76F988DA );

  02367	b8 04 00 00 00	 mov	 eax, 4
  0236c	6b c8 15	 imul	 ecx, eax, 21
  0236f	8b 94 0d e4 fe
	ff ff		 mov	 edx, DWORD PTR _W$[ebp+ecx]
  02376	c1 ea 11	 shr	 edx, 17			; 00000011H
  02379	b8 04 00 00 00	 mov	 eax, 4
  0237e	6b c8 15	 imul	 ecx, eax, 21
  02381	8b 84 0d e4 fe
	ff ff		 mov	 eax, DWORD PTR _W$[ebp+ecx]
  02388	c1 e0 0f	 shl	 eax, 15			; 0000000fH
  0238b	0b d0		 or	 edx, eax
  0238d	b9 04 00 00 00	 mov	 ecx, 4
  02392	6b c1 15	 imul	 eax, ecx, 21
  02395	8b 8c 05 e4 fe
	ff ff		 mov	 ecx, DWORD PTR _W$[ebp+eax]
  0239c	c1 e9 13	 shr	 ecx, 19			; 00000013H
  0239f	b8 04 00 00 00	 mov	 eax, 4
  023a4	6b c0 15	 imul	 eax, eax, 21
  023a7	8b 84 05 e4 fe
	ff ff		 mov	 eax, DWORD PTR _W$[ebp+eax]
  023ae	c1 e0 0d	 shl	 eax, 13			; 0000000dH
  023b1	0b c8		 or	 ecx, eax
  023b3	33 d1		 xor	 edx, ecx
  023b5	b9 04 00 00 00	 mov	 ecx, 4
  023ba	6b c1 15	 imul	 eax, ecx, 21
  023bd	8b 8c 05 e4 fe
	ff ff		 mov	 ecx, DWORD PTR _W$[ebp+eax]
  023c4	c1 e9 0a	 shr	 ecx, 10			; 0000000aH
  023c7	33 d1		 xor	 edx, ecx
  023c9	b8 04 00 00 00	 mov	 eax, 4
  023ce	c1 e0 04	 shl	 eax, 4
  023d1	03 94 05 e4 fe
	ff ff		 add	 edx, DWORD PTR _W$[ebp+eax]
  023d8	b9 04 00 00 00	 mov	 ecx, 4
  023dd	c1 e1 03	 shl	 ecx, 3
  023e0	8b 84 0d e4 fe
	ff ff		 mov	 eax, DWORD PTR _W$[ebp+ecx]
  023e7	c1 e8 07	 shr	 eax, 7
  023ea	b9 04 00 00 00	 mov	 ecx, 4
  023ef	c1 e1 03	 shl	 ecx, 3
  023f2	8b 8c 0d e4 fe
	ff ff		 mov	 ecx, DWORD PTR _W$[ebp+ecx]
  023f9	c1 e1 19	 shl	 ecx, 25			; 00000019H
  023fc	0b c1		 or	 eax, ecx
  023fe	b9 04 00 00 00	 mov	 ecx, 4
  02403	c1 e1 03	 shl	 ecx, 3
  02406	8b 8c 0d e4 fe
	ff ff		 mov	 ecx, DWORD PTR _W$[ebp+ecx]
  0240d	c1 e9 12	 shr	 ecx, 18			; 00000012H
  02410	be 04 00 00 00	 mov	 esi, 4
  02415	c1 e6 03	 shl	 esi, 3
  02418	8b b4 35 e4 fe
	ff ff		 mov	 esi, DWORD PTR _W$[ebp+esi]
  0241f	c1 e6 0e	 shl	 esi, 14			; 0000000eH
  02422	0b ce		 or	 ecx, esi
  02424	33 c1		 xor	 eax, ecx
  02426	b9 04 00 00 00	 mov	 ecx, 4
  0242b	c1 e1 03	 shl	 ecx, 3
  0242e	8b 8c 0d e4 fe
	ff ff		 mov	 ecx, DWORD PTR _W$[ebp+ecx]
  02435	c1 e9 03	 shr	 ecx, 3
  02438	33 c1		 xor	 eax, ecx
  0243a	03 d0		 add	 edx, eax
  0243c	b8 04 00 00 00	 mov	 eax, 4
  02441	6b c8 07	 imul	 ecx, eax, 7
  02444	03 94 0d e4 fe
	ff ff		 add	 edx, DWORD PTR _W$[ebp+ecx]
  0244b	89 95 bc fd ff
	ff		 mov	 DWORD PTR tv1692[ebp], edx
  02451	ba 04 00 00 00	 mov	 edx, 4
  02456	6b c2 17	 imul	 eax, edx, 23
  02459	8b 8d bc fd ff
	ff		 mov	 ecx, DWORD PTR tv1692[ebp]
  0245f	89 8c 05 e4 fe
	ff ff		 mov	 DWORD PTR _W$[ebp+eax], ecx
  02466	8b 95 90 fe ff
	ff		 mov	 edx, DWORD PTR _G$[ebp]
  0246c	33 95 84 fe ff
	ff		 xor	 edx, DWORD PTR _H$[ebp]
  02472	23 95 9c fe ff
	ff		 and	 edx, DWORD PTR _F$[ebp]
  02478	33 95 84 fe ff
	ff		 xor	 edx, DWORD PTR _H$[ebp]
  0247e	8b 85 9c fe ff
	ff		 mov	 eax, DWORD PTR _F$[ebp]
  02484	c1 e0 07	 shl	 eax, 7
  02487	8b 8d 9c fe ff
	ff		 mov	 ecx, DWORD PTR _F$[ebp]
  0248d	c1 e9 19	 shr	 ecx, 25			; 00000019H
  02490	0b c8		 or	 ecx, eax
  02492	8b 85 9c fe ff
	ff		 mov	 eax, DWORD PTR _F$[ebp]
  02498	c1 e0 15	 shl	 eax, 21			; 00000015H
  0249b	8b b5 9c fe ff
	ff		 mov	 esi, DWORD PTR _F$[ebp]
  024a1	c1 ee 0b	 shr	 esi, 11			; 0000000bH
  024a4	0b f0		 or	 esi, eax
  024a6	8b 85 9c fe ff
	ff		 mov	 eax, DWORD PTR _F$[ebp]
  024ac	c1 e0 1a	 shl	 eax, 26			; 0000001aH
  024af	8b bd 9c fe ff
	ff		 mov	 edi, DWORD PTR _F$[ebp]
  024b5	c1 ef 06	 shr	 edi, 6
  024b8	0b f8		 or	 edi, eax
  024ba	33 fe		 xor	 edi, esi
  024bc	33 f9		 xor	 edi, ecx
  024be	03 bd d8 fe ff
	ff		 add	 edi, DWORD PTR _A$[ebp]
  024c4	03 bd bc fd ff
	ff		 add	 edi, DWORD PTR tv1692[ebp]
  024ca	8d 8c 3a da 88
	f9 76		 lea	 ecx, DWORD PTR [edx+edi+1996064986]
  024d1	89 4d f8	 mov	 DWORD PTR _temp1$[ebp], ecx
  024d4	8b 85 cc fe ff
	ff		 mov	 eax, DWORD PTR _B$[ebp]
  024da	c1 e8 02	 shr	 eax, 2
  024dd	8b 8d cc fe ff
	ff		 mov	 ecx, DWORD PTR _B$[ebp]
  024e3	c1 e1 1e	 shl	 ecx, 30			; 0000001eH
  024e6	0b c1		 or	 eax, ecx
  024e8	8b 95 cc fe ff
	ff		 mov	 edx, DWORD PTR _B$[ebp]
  024ee	c1 ea 0d	 shr	 edx, 13			; 0000000dH
  024f1	8b 8d cc fe ff
	ff		 mov	 ecx, DWORD PTR _B$[ebp]
  024f7	c1 e1 13	 shl	 ecx, 19			; 00000013H
  024fa	0b d1		 or	 edx, ecx
  024fc	33 c2		 xor	 eax, edx
  024fe	8b 95 cc fe ff
	ff		 mov	 edx, DWORD PTR _B$[ebp]
  02504	c1 ea 16	 shr	 edx, 22			; 00000016H
  02507	8b 8d cc fe ff
	ff		 mov	 ecx, DWORD PTR _B$[ebp]
  0250d	c1 e1 0a	 shl	 ecx, 10			; 0000000aH
  02510	0b d1		 or	 edx, ecx
  02512	33 c2		 xor	 eax, edx
  02514	8b 95 cc fe ff
	ff		 mov	 edx, DWORD PTR _B$[ebp]
  0251a	23 95 c0 fe ff
	ff		 and	 edx, DWORD PTR _C$[ebp]
  02520	8b 8d cc fe ff
	ff		 mov	 ecx, DWORD PTR _B$[ebp]
  02526	0b 8d c0 fe ff
	ff		 or	 ecx, DWORD PTR _C$[ebp]
  0252c	23 8d b4 fe ff
	ff		 and	 ecx, DWORD PTR _D$[ebp]
  02532	0b d1		 or	 edx, ecx
  02534	03 c2		 add	 eax, edx
  02536	89 45 ec	 mov	 DWORD PTR _temp2$[ebp], eax
  02539	8b 85 a8 fe ff
	ff		 mov	 eax, DWORD PTR _E$[ebp]
  0253f	03 45 f8	 add	 eax, DWORD PTR _temp1$[ebp]
  02542	89 85 a8 fe ff
	ff		 mov	 DWORD PTR _E$[ebp], eax
  02548	8b 45 f8	 mov	 eax, DWORD PTR _temp1$[ebp]
  0254b	03 45 ec	 add	 eax, DWORD PTR _temp2$[ebp]
  0254e	89 85 d8 fe ff
	ff		 mov	 DWORD PTR _A$[ebp], eax

; 138  :     P( A, B, C, D, E, F, G, H, R(24), 0x983E5152 );

  02554	b8 04 00 00 00	 mov	 eax, 4
  02559	6b c8 16	 imul	 ecx, eax, 22
  0255c	8b 94 0d e4 fe
	ff ff		 mov	 edx, DWORD PTR _W$[ebp+ecx]
  02563	c1 ea 11	 shr	 edx, 17			; 00000011H
  02566	b8 04 00 00 00	 mov	 eax, 4
  0256b	6b c8 16	 imul	 ecx, eax, 22
  0256e	8b 84 0d e4 fe
	ff ff		 mov	 eax, DWORD PTR _W$[ebp+ecx]
  02575	c1 e0 0f	 shl	 eax, 15			; 0000000fH
  02578	0b d0		 or	 edx, eax
  0257a	b9 04 00 00 00	 mov	 ecx, 4
  0257f	6b c1 16	 imul	 eax, ecx, 22
  02582	8b 8c 05 e4 fe
	ff ff		 mov	 ecx, DWORD PTR _W$[ebp+eax]
  02589	c1 e9 13	 shr	 ecx, 19			; 00000013H
  0258c	b8 04 00 00 00	 mov	 eax, 4
  02591	6b c0 16	 imul	 eax, eax, 22
  02594	8b 84 05 e4 fe
	ff ff		 mov	 eax, DWORD PTR _W$[ebp+eax]
  0259b	c1 e0 0d	 shl	 eax, 13			; 0000000dH
  0259e	0b c8		 or	 ecx, eax
  025a0	33 d1		 xor	 edx, ecx
  025a2	b9 04 00 00 00	 mov	 ecx, 4
  025a7	6b c1 16	 imul	 eax, ecx, 22
  025aa	8b 8c 05 e4 fe
	ff ff		 mov	 ecx, DWORD PTR _W$[ebp+eax]
  025b1	c1 e9 0a	 shr	 ecx, 10			; 0000000aH
  025b4	33 d1		 xor	 edx, ecx
  025b6	b8 04 00 00 00	 mov	 eax, 4
  025bb	6b c8 11	 imul	 ecx, eax, 17
  025be	03 94 0d e4 fe
	ff ff		 add	 edx, DWORD PTR _W$[ebp+ecx]
  025c5	b8 04 00 00 00	 mov	 eax, 4
  025ca	6b c8 09	 imul	 ecx, eax, 9
  025cd	8b 84 0d e4 fe
	ff ff		 mov	 eax, DWORD PTR _W$[ebp+ecx]
  025d4	c1 e8 07	 shr	 eax, 7
  025d7	b9 04 00 00 00	 mov	 ecx, 4
  025dc	6b c9 09	 imul	 ecx, ecx, 9
  025df	8b 8c 0d e4 fe
	ff ff		 mov	 ecx, DWORD PTR _W$[ebp+ecx]
  025e6	c1 e1 19	 shl	 ecx, 25			; 00000019H
  025e9	0b c1		 or	 eax, ecx
  025eb	b9 04 00 00 00	 mov	 ecx, 4
  025f0	6b c9 09	 imul	 ecx, ecx, 9
  025f3	8b 8c 0d e4 fe
	ff ff		 mov	 ecx, DWORD PTR _W$[ebp+ecx]
  025fa	c1 e9 12	 shr	 ecx, 18			; 00000012H
  025fd	be 04 00 00 00	 mov	 esi, 4
  02602	6b f6 09	 imul	 esi, esi, 9
  02605	8b b4 35 e4 fe
	ff ff		 mov	 esi, DWORD PTR _W$[ebp+esi]
  0260c	c1 e6 0e	 shl	 esi, 14			; 0000000eH
  0260f	0b ce		 or	 ecx, esi
  02611	33 c1		 xor	 eax, ecx
  02613	b9 04 00 00 00	 mov	 ecx, 4
  02618	6b c9 09	 imul	 ecx, ecx, 9
  0261b	8b 8c 0d e4 fe
	ff ff		 mov	 ecx, DWORD PTR _W$[ebp+ecx]
  02622	c1 e9 03	 shr	 ecx, 3
  02625	33 c1		 xor	 eax, ecx
  02627	03 d0		 add	 edx, eax
  02629	b8 04 00 00 00	 mov	 eax, 4
  0262e	c1 e0 03	 shl	 eax, 3
  02631	03 94 05 e4 fe
	ff ff		 add	 edx, DWORD PTR _W$[ebp+eax]
  02638	89 95 bc fd ff
	ff		 mov	 DWORD PTR tv1775[ebp], edx
  0263e	b9 04 00 00 00	 mov	 ecx, 4
  02643	6b d1 18	 imul	 edx, ecx, 24
  02646	8b 85 bc fd ff
	ff		 mov	 eax, DWORD PTR tv1775[ebp]
  0264c	89 84 15 e4 fe
	ff ff		 mov	 DWORD PTR _W$[ebp+edx], eax
  02653	8b 8d 9c fe ff
	ff		 mov	 ecx, DWORD PTR _F$[ebp]
  02659	33 8d 90 fe ff
	ff		 xor	 ecx, DWORD PTR _G$[ebp]
  0265f	23 8d a8 fe ff
	ff		 and	 ecx, DWORD PTR _E$[ebp]
  02665	33 8d 90 fe ff
	ff		 xor	 ecx, DWORD PTR _G$[ebp]
  0266b	8b 95 a8 fe ff
	ff		 mov	 edx, DWORD PTR _E$[ebp]
  02671	c1 e2 07	 shl	 edx, 7
  02674	8b 85 a8 fe ff
	ff		 mov	 eax, DWORD PTR _E$[ebp]
  0267a	c1 e8 19	 shr	 eax, 25			; 00000019H
  0267d	0b c2		 or	 eax, edx
  0267f	8b 95 a8 fe ff
	ff		 mov	 edx, DWORD PTR _E$[ebp]
  02685	c1 e2 15	 shl	 edx, 21			; 00000015H
  02688	8b b5 a8 fe ff
	ff		 mov	 esi, DWORD PTR _E$[ebp]
  0268e	c1 ee 0b	 shr	 esi, 11			; 0000000bH
  02691	0b f2		 or	 esi, edx
  02693	8b 95 a8 fe ff
	ff		 mov	 edx, DWORD PTR _E$[ebp]
  02699	c1 e2 1a	 shl	 edx, 26			; 0000001aH
  0269c	8b bd a8 fe ff
	ff		 mov	 edi, DWORD PTR _E$[ebp]
  026a2	c1 ef 06	 shr	 edi, 6
  026a5	0b fa		 or	 edi, edx
  026a7	33 fe		 xor	 edi, esi
  026a9	33 f8		 xor	 edi, eax
  026ab	03 bd 84 fe ff
	ff		 add	 edi, DWORD PTR _H$[ebp]
  026b1	03 bd bc fd ff
	ff		 add	 edi, DWORD PTR tv1775[ebp]
  026b7	8d 84 39 52 51
	3e 98		 lea	 eax, DWORD PTR [ecx+edi-1740746414]
  026be	89 45 f8	 mov	 DWORD PTR _temp1$[ebp], eax
  026c1	8b 85 d8 fe ff
	ff		 mov	 eax, DWORD PTR _A$[ebp]
  026c7	c1 e8 02	 shr	 eax, 2
  026ca	8b 8d d8 fe ff
	ff		 mov	 ecx, DWORD PTR _A$[ebp]
  026d0	c1 e1 1e	 shl	 ecx, 30			; 0000001eH
  026d3	0b c1		 or	 eax, ecx
  026d5	8b 95 d8 fe ff
	ff		 mov	 edx, DWORD PTR _A$[ebp]
  026db	c1 ea 0d	 shr	 edx, 13			; 0000000dH
  026de	8b 8d d8 fe ff
	ff		 mov	 ecx, DWORD PTR _A$[ebp]
  026e4	c1 e1 13	 shl	 ecx, 19			; 00000013H
  026e7	0b d1		 or	 edx, ecx
  026e9	33 c2		 xor	 eax, edx
  026eb	8b 95 d8 fe ff
	ff		 mov	 edx, DWORD PTR _A$[ebp]
  026f1	c1 ea 16	 shr	 edx, 22			; 00000016H
  026f4	8b 8d d8 fe ff
	ff		 mov	 ecx, DWORD PTR _A$[ebp]
  026fa	c1 e1 0a	 shl	 ecx, 10			; 0000000aH
  026fd	0b d1		 or	 edx, ecx
  026ff	33 c2		 xor	 eax, edx
  02701	8b 95 d8 fe ff
	ff		 mov	 edx, DWORD PTR _A$[ebp]
  02707	23 95 cc fe ff
	ff		 and	 edx, DWORD PTR _B$[ebp]
  0270d	8b 8d d8 fe ff
	ff		 mov	 ecx, DWORD PTR _A$[ebp]
  02713	0b 8d cc fe ff
	ff		 or	 ecx, DWORD PTR _B$[ebp]
  02719	23 8d c0 fe ff
	ff		 and	 ecx, DWORD PTR _C$[ebp]
  0271f	0b d1		 or	 edx, ecx
  02721	03 c2		 add	 eax, edx
  02723	89 45 ec	 mov	 DWORD PTR _temp2$[ebp], eax
  02726	8b 85 b4 fe ff
	ff		 mov	 eax, DWORD PTR _D$[ebp]
  0272c	03 45 f8	 add	 eax, DWORD PTR _temp1$[ebp]
  0272f	89 85 b4 fe ff
	ff		 mov	 DWORD PTR _D$[ebp], eax
  02735	8b 45 f8	 mov	 eax, DWORD PTR _temp1$[ebp]
  02738	03 45 ec	 add	 eax, DWORD PTR _temp2$[ebp]
  0273b	89 85 84 fe ff
	ff		 mov	 DWORD PTR _H$[ebp], eax

; 139  :     P( H, A, B, C, D, E, F, G, R(25), 0xA831C66D );

  02741	b8 04 00 00 00	 mov	 eax, 4
  02746	6b c8 17	 imul	 ecx, eax, 23
  02749	8b 94 0d e4 fe
	ff ff		 mov	 edx, DWORD PTR _W$[ebp+ecx]
  02750	c1 ea 11	 shr	 edx, 17			; 00000011H
  02753	b8 04 00 00 00	 mov	 eax, 4
  02758	6b c8 17	 imul	 ecx, eax, 23
  0275b	8b 84 0d e4 fe
	ff ff		 mov	 eax, DWORD PTR _W$[ebp+ecx]
  02762	c1 e0 0f	 shl	 eax, 15			; 0000000fH
  02765	0b d0		 or	 edx, eax
  02767	b9 04 00 00 00	 mov	 ecx, 4
  0276c	6b c1 17	 imul	 eax, ecx, 23
  0276f	8b 8c 05 e4 fe
	ff ff		 mov	 ecx, DWORD PTR _W$[ebp+eax]
  02776	c1 e9 13	 shr	 ecx, 19			; 00000013H
  02779	b8 04 00 00 00	 mov	 eax, 4
  0277e	6b c0 17	 imul	 eax, eax, 23
  02781	8b 84 05 e4 fe
	ff ff		 mov	 eax, DWORD PTR _W$[ebp+eax]
  02788	c1 e0 0d	 shl	 eax, 13			; 0000000dH
  0278b	0b c8		 or	 ecx, eax
  0278d	33 d1		 xor	 edx, ecx
  0278f	b9 04 00 00 00	 mov	 ecx, 4
  02794	6b c1 17	 imul	 eax, ecx, 23
  02797	8b 8c 05 e4 fe
	ff ff		 mov	 ecx, DWORD PTR _W$[ebp+eax]
  0279e	c1 e9 0a	 shr	 ecx, 10			; 0000000aH
  027a1	33 d1		 xor	 edx, ecx
  027a3	b8 04 00 00 00	 mov	 eax, 4
  027a8	6b c8 12	 imul	 ecx, eax, 18
  027ab	03 94 0d e4 fe
	ff ff		 add	 edx, DWORD PTR _W$[ebp+ecx]
  027b2	b8 04 00 00 00	 mov	 eax, 4
  027b7	6b c8 0a	 imul	 ecx, eax, 10
  027ba	8b 84 0d e4 fe
	ff ff		 mov	 eax, DWORD PTR _W$[ebp+ecx]
  027c1	c1 e8 07	 shr	 eax, 7
  027c4	b9 04 00 00 00	 mov	 ecx, 4
  027c9	6b c9 0a	 imul	 ecx, ecx, 10
  027cc	8b 8c 0d e4 fe
	ff ff		 mov	 ecx, DWORD PTR _W$[ebp+ecx]
  027d3	c1 e1 19	 shl	 ecx, 25			; 00000019H
  027d6	0b c1		 or	 eax, ecx
  027d8	b9 04 00 00 00	 mov	 ecx, 4
  027dd	6b c9 0a	 imul	 ecx, ecx, 10
  027e0	8b 8c 0d e4 fe
	ff ff		 mov	 ecx, DWORD PTR _W$[ebp+ecx]
  027e7	c1 e9 12	 shr	 ecx, 18			; 00000012H
  027ea	be 04 00 00 00	 mov	 esi, 4
  027ef	6b f6 0a	 imul	 esi, esi, 10
  027f2	8b b4 35 e4 fe
	ff ff		 mov	 esi, DWORD PTR _W$[ebp+esi]
  027f9	c1 e6 0e	 shl	 esi, 14			; 0000000eH
  027fc	0b ce		 or	 ecx, esi
  027fe	33 c1		 xor	 eax, ecx
  02800	b9 04 00 00 00	 mov	 ecx, 4
  02805	6b c9 0a	 imul	 ecx, ecx, 10
  02808	8b 8c 0d e4 fe
	ff ff		 mov	 ecx, DWORD PTR _W$[ebp+ecx]
  0280f	c1 e9 03	 shr	 ecx, 3
  02812	33 c1		 xor	 eax, ecx
  02814	03 d0		 add	 edx, eax
  02816	b8 04 00 00 00	 mov	 eax, 4
  0281b	6b c8 09	 imul	 ecx, eax, 9
  0281e	03 94 0d e4 fe
	ff ff		 add	 edx, DWORD PTR _W$[ebp+ecx]
  02825	89 95 bc fd ff
	ff		 mov	 DWORD PTR tv1858[ebp], edx
  0282b	ba 04 00 00 00	 mov	 edx, 4
  02830	6b c2 19	 imul	 eax, edx, 25
  02833	8b 8d bc fd ff
	ff		 mov	 ecx, DWORD PTR tv1858[ebp]
  02839	89 8c 05 e4 fe
	ff ff		 mov	 DWORD PTR _W$[ebp+eax], ecx
  02840	8b 95 a8 fe ff
	ff		 mov	 edx, DWORD PTR _E$[ebp]
  02846	33 95 9c fe ff
	ff		 xor	 edx, DWORD PTR _F$[ebp]
  0284c	23 95 b4 fe ff
	ff		 and	 edx, DWORD PTR _D$[ebp]
  02852	33 95 9c fe ff
	ff		 xor	 edx, DWORD PTR _F$[ebp]
  02858	8b 85 b4 fe ff
	ff		 mov	 eax, DWORD PTR _D$[ebp]
  0285e	c1 e0 07	 shl	 eax, 7
  02861	8b 8d b4 fe ff
	ff		 mov	 ecx, DWORD PTR _D$[ebp]
  02867	c1 e9 19	 shr	 ecx, 25			; 00000019H
  0286a	0b c8		 or	 ecx, eax
  0286c	8b 85 b4 fe ff
	ff		 mov	 eax, DWORD PTR _D$[ebp]
  02872	c1 e0 15	 shl	 eax, 21			; 00000015H
  02875	8b b5 b4 fe ff
	ff		 mov	 esi, DWORD PTR _D$[ebp]
  0287b	c1 ee 0b	 shr	 esi, 11			; 0000000bH
  0287e	0b f0		 or	 esi, eax
  02880	8b 85 b4 fe ff
	ff		 mov	 eax, DWORD PTR _D$[ebp]
  02886	c1 e0 1a	 shl	 eax, 26			; 0000001aH
  02889	8b bd b4 fe ff
	ff		 mov	 edi, DWORD PTR _D$[ebp]
  0288f	c1 ef 06	 shr	 edi, 6
  02892	0b f8		 or	 edi, eax
  02894	33 fe		 xor	 edi, esi
  02896	33 f9		 xor	 edi, ecx
  02898	03 bd 90 fe ff
	ff		 add	 edi, DWORD PTR _G$[ebp]
  0289e	03 bd bc fd ff
	ff		 add	 edi, DWORD PTR tv1858[ebp]
  028a4	8d 8c 3a 6d c6
	31 a8		 lea	 ecx, DWORD PTR [edx+edi-1473132947]
  028ab	89 4d f8	 mov	 DWORD PTR _temp1$[ebp], ecx
  028ae	8b 85 84 fe ff
	ff		 mov	 eax, DWORD PTR _H$[ebp]
  028b4	c1 e8 02	 shr	 eax, 2
  028b7	8b 8d 84 fe ff
	ff		 mov	 ecx, DWORD PTR _H$[ebp]
  028bd	c1 e1 1e	 shl	 ecx, 30			; 0000001eH
  028c0	0b c1		 or	 eax, ecx
  028c2	8b 95 84 fe ff
	ff		 mov	 edx, DWORD PTR _H$[ebp]
  028c8	c1 ea 0d	 shr	 edx, 13			; 0000000dH
  028cb	8b 8d 84 fe ff
	ff		 mov	 ecx, DWORD PTR _H$[ebp]
  028d1	c1 e1 13	 shl	 ecx, 19			; 00000013H
  028d4	0b d1		 or	 edx, ecx
  028d6	33 c2		 xor	 eax, edx
  028d8	8b 95 84 fe ff
	ff		 mov	 edx, DWORD PTR _H$[ebp]
  028de	c1 ea 16	 shr	 edx, 22			; 00000016H
  028e1	8b 8d 84 fe ff
	ff		 mov	 ecx, DWORD PTR _H$[ebp]
  028e7	c1 e1 0a	 shl	 ecx, 10			; 0000000aH
  028ea	0b d1		 or	 edx, ecx
  028ec	33 c2		 xor	 eax, edx
  028ee	8b 95 84 fe ff
	ff		 mov	 edx, DWORD PTR _H$[ebp]
  028f4	23 95 d8 fe ff
	ff		 and	 edx, DWORD PTR _A$[ebp]
  028fa	8b 8d 84 fe ff
	ff		 mov	 ecx, DWORD PTR _H$[ebp]
  02900	0b 8d d8 fe ff
	ff		 or	 ecx, DWORD PTR _A$[ebp]
  02906	23 8d cc fe ff
	ff		 and	 ecx, DWORD PTR _B$[ebp]
  0290c	0b d1		 or	 edx, ecx
  0290e	03 c2		 add	 eax, edx
  02910	89 45 ec	 mov	 DWORD PTR _temp2$[ebp], eax
  02913	8b 85 c0 fe ff
	ff		 mov	 eax, DWORD PTR _C$[ebp]
  02919	03 45 f8	 add	 eax, DWORD PTR _temp1$[ebp]
  0291c	89 85 c0 fe ff
	ff		 mov	 DWORD PTR _C$[ebp], eax
  02922	8b 45 f8	 mov	 eax, DWORD PTR _temp1$[ebp]
  02925	03 45 ec	 add	 eax, DWORD PTR _temp2$[ebp]
  02928	89 85 90 fe ff
	ff		 mov	 DWORD PTR _G$[ebp], eax

; 140  :     P( G, H, A, B, C, D, E, F, R(26), 0xB00327C8 );

  0292e	b8 04 00 00 00	 mov	 eax, 4
  02933	6b c8 18	 imul	 ecx, eax, 24
  02936	8b 94 0d e4 fe
	ff ff		 mov	 edx, DWORD PTR _W$[ebp+ecx]
  0293d	c1 ea 11	 shr	 edx, 17			; 00000011H
  02940	b8 04 00 00 00	 mov	 eax, 4
  02945	6b c8 18	 imul	 ecx, eax, 24
  02948	8b 84 0d e4 fe
	ff ff		 mov	 eax, DWORD PTR _W$[ebp+ecx]
  0294f	c1 e0 0f	 shl	 eax, 15			; 0000000fH
  02952	0b d0		 or	 edx, eax
  02954	b9 04 00 00 00	 mov	 ecx, 4
  02959	6b c1 18	 imul	 eax, ecx, 24
  0295c	8b 8c 05 e4 fe
	ff ff		 mov	 ecx, DWORD PTR _W$[ebp+eax]
  02963	c1 e9 13	 shr	 ecx, 19			; 00000013H
  02966	b8 04 00 00 00	 mov	 eax, 4
  0296b	6b c0 18	 imul	 eax, eax, 24
  0296e	8b 84 05 e4 fe
	ff ff		 mov	 eax, DWORD PTR _W$[ebp+eax]
  02975	c1 e0 0d	 shl	 eax, 13			; 0000000dH
  02978	0b c8		 or	 ecx, eax
  0297a	33 d1		 xor	 edx, ecx
  0297c	b9 04 00 00 00	 mov	 ecx, 4
  02981	6b c1 18	 imul	 eax, ecx, 24
  02984	8b 8c 05 e4 fe
	ff ff		 mov	 ecx, DWORD PTR _W$[ebp+eax]
  0298b	c1 e9 0a	 shr	 ecx, 10			; 0000000aH
  0298e	33 d1		 xor	 edx, ecx
  02990	b8 04 00 00 00	 mov	 eax, 4
  02995	6b c8 13	 imul	 ecx, eax, 19
  02998	03 94 0d e4 fe
	ff ff		 add	 edx, DWORD PTR _W$[ebp+ecx]
  0299f	b8 04 00 00 00	 mov	 eax, 4
  029a4	6b c8 0b	 imul	 ecx, eax, 11
  029a7	8b 84 0d e4 fe
	ff ff		 mov	 eax, DWORD PTR _W$[ebp+ecx]
  029ae	c1 e8 07	 shr	 eax, 7
  029b1	b9 04 00 00 00	 mov	 ecx, 4
  029b6	6b c9 0b	 imul	 ecx, ecx, 11
  029b9	8b 8c 0d e4 fe
	ff ff		 mov	 ecx, DWORD PTR _W$[ebp+ecx]
  029c0	c1 e1 19	 shl	 ecx, 25			; 00000019H
  029c3	0b c1		 or	 eax, ecx
  029c5	b9 04 00 00 00	 mov	 ecx, 4
  029ca	6b c9 0b	 imul	 ecx, ecx, 11
  029cd	8b 8c 0d e4 fe
	ff ff		 mov	 ecx, DWORD PTR _W$[ebp+ecx]
  029d4	c1 e9 12	 shr	 ecx, 18			; 00000012H
  029d7	be 04 00 00 00	 mov	 esi, 4
  029dc	6b f6 0b	 imul	 esi, esi, 11
  029df	8b b4 35 e4 fe
	ff ff		 mov	 esi, DWORD PTR _W$[ebp+esi]
  029e6	c1 e6 0e	 shl	 esi, 14			; 0000000eH
  029e9	0b ce		 or	 ecx, esi
  029eb	33 c1		 xor	 eax, ecx
  029ed	b9 04 00 00 00	 mov	 ecx, 4
  029f2	6b c9 0b	 imul	 ecx, ecx, 11
  029f5	8b 8c 0d e4 fe
	ff ff		 mov	 ecx, DWORD PTR _W$[ebp+ecx]
  029fc	c1 e9 03	 shr	 ecx, 3
  029ff	33 c1		 xor	 eax, ecx
  02a01	03 d0		 add	 edx, eax
  02a03	b8 04 00 00 00	 mov	 eax, 4
  02a08	6b c8 0a	 imul	 ecx, eax, 10
  02a0b	03 94 0d e4 fe
	ff ff		 add	 edx, DWORD PTR _W$[ebp+ecx]
  02a12	89 95 bc fd ff
	ff		 mov	 DWORD PTR tv1941[ebp], edx
  02a18	ba 04 00 00 00	 mov	 edx, 4
  02a1d	6b c2 1a	 imul	 eax, edx, 26
  02a20	8b 8d bc fd ff
	ff		 mov	 ecx, DWORD PTR tv1941[ebp]
  02a26	89 8c 05 e4 fe
	ff ff		 mov	 DWORD PTR _W$[ebp+eax], ecx
  02a2d	8b 95 b4 fe ff
	ff		 mov	 edx, DWORD PTR _D$[ebp]
  02a33	33 95 a8 fe ff
	ff		 xor	 edx, DWORD PTR _E$[ebp]
  02a39	23 95 c0 fe ff
	ff		 and	 edx, DWORD PTR _C$[ebp]
  02a3f	33 95 a8 fe ff
	ff		 xor	 edx, DWORD PTR _E$[ebp]
  02a45	8b 85 c0 fe ff
	ff		 mov	 eax, DWORD PTR _C$[ebp]
  02a4b	c1 e0 07	 shl	 eax, 7
  02a4e	8b 8d c0 fe ff
	ff		 mov	 ecx, DWORD PTR _C$[ebp]
  02a54	c1 e9 19	 shr	 ecx, 25			; 00000019H
  02a57	0b c8		 or	 ecx, eax
  02a59	8b 85 c0 fe ff
	ff		 mov	 eax, DWORD PTR _C$[ebp]
  02a5f	c1 e0 15	 shl	 eax, 21			; 00000015H
  02a62	8b b5 c0 fe ff
	ff		 mov	 esi, DWORD PTR _C$[ebp]
  02a68	c1 ee 0b	 shr	 esi, 11			; 0000000bH
  02a6b	0b f0		 or	 esi, eax
  02a6d	8b 85 c0 fe ff
	ff		 mov	 eax, DWORD PTR _C$[ebp]
  02a73	c1 e0 1a	 shl	 eax, 26			; 0000001aH
  02a76	8b bd c0 fe ff
	ff		 mov	 edi, DWORD PTR _C$[ebp]
  02a7c	c1 ef 06	 shr	 edi, 6
  02a7f	0b f8		 or	 edi, eax
  02a81	33 fe		 xor	 edi, esi
  02a83	33 f9		 xor	 edi, ecx
  02a85	03 bd 9c fe ff
	ff		 add	 edi, DWORD PTR _F$[ebp]
  02a8b	03 bd bc fd ff
	ff		 add	 edi, DWORD PTR tv1941[ebp]
  02a91	8d 8c 3a c8 27
	03 b0		 lea	 ecx, DWORD PTR [edx+edi-1341970488]
  02a98	89 4d f8	 mov	 DWORD PTR _temp1$[ebp], ecx
  02a9b	8b 85 90 fe ff
	ff		 mov	 eax, DWORD PTR _G$[ebp]
  02aa1	c1 e8 02	 shr	 eax, 2
  02aa4	8b 8d 90 fe ff
	ff		 mov	 ecx, DWORD PTR _G$[ebp]
  02aaa	c1 e1 1e	 shl	 ecx, 30			; 0000001eH
  02aad	0b c1		 or	 eax, ecx
  02aaf	8b 95 90 fe ff
	ff		 mov	 edx, DWORD PTR _G$[ebp]
  02ab5	c1 ea 0d	 shr	 edx, 13			; 0000000dH
  02ab8	8b 8d 90 fe ff
	ff		 mov	 ecx, DWORD PTR _G$[ebp]
  02abe	c1 e1 13	 shl	 ecx, 19			; 00000013H
  02ac1	0b d1		 or	 edx, ecx
  02ac3	33 c2		 xor	 eax, edx
  02ac5	8b 95 90 fe ff
	ff		 mov	 edx, DWORD PTR _G$[ebp]
  02acb	c1 ea 16	 shr	 edx, 22			; 00000016H
  02ace	8b 8d 90 fe ff
	ff		 mov	 ecx, DWORD PTR _G$[ebp]
  02ad4	c1 e1 0a	 shl	 ecx, 10			; 0000000aH
  02ad7	0b d1		 or	 edx, ecx
  02ad9	33 c2		 xor	 eax, edx
  02adb	8b 95 90 fe ff
	ff		 mov	 edx, DWORD PTR _G$[ebp]
  02ae1	23 95 84 fe ff
	ff		 and	 edx, DWORD PTR _H$[ebp]
  02ae7	8b 8d 90 fe ff
	ff		 mov	 ecx, DWORD PTR _G$[ebp]
  02aed	0b 8d 84 fe ff
	ff		 or	 ecx, DWORD PTR _H$[ebp]
  02af3	23 8d d8 fe ff
	ff		 and	 ecx, DWORD PTR _A$[ebp]
  02af9	0b d1		 or	 edx, ecx
  02afb	03 c2		 add	 eax, edx
  02afd	89 45 ec	 mov	 DWORD PTR _temp2$[ebp], eax
  02b00	8b 85 cc fe ff
	ff		 mov	 eax, DWORD PTR _B$[ebp]
  02b06	03 45 f8	 add	 eax, DWORD PTR _temp1$[ebp]
  02b09	89 85 cc fe ff
	ff		 mov	 DWORD PTR _B$[ebp], eax
  02b0f	8b 45 f8	 mov	 eax, DWORD PTR _temp1$[ebp]
  02b12	03 45 ec	 add	 eax, DWORD PTR _temp2$[ebp]
  02b15	89 85 9c fe ff
	ff		 mov	 DWORD PTR _F$[ebp], eax

; 141  :     P( F, G, H, A, B, C, D, E, R(27), 0xBF597FC7 );

  02b1b	b8 04 00 00 00	 mov	 eax, 4
  02b20	6b c8 19	 imul	 ecx, eax, 25
  02b23	8b 94 0d e4 fe
	ff ff		 mov	 edx, DWORD PTR _W$[ebp+ecx]
  02b2a	c1 ea 11	 shr	 edx, 17			; 00000011H
  02b2d	b8 04 00 00 00	 mov	 eax, 4
  02b32	6b c8 19	 imul	 ecx, eax, 25
  02b35	8b 84 0d e4 fe
	ff ff		 mov	 eax, DWORD PTR _W$[ebp+ecx]
  02b3c	c1 e0 0f	 shl	 eax, 15			; 0000000fH
  02b3f	0b d0		 or	 edx, eax
  02b41	b9 04 00 00 00	 mov	 ecx, 4
  02b46	6b c1 19	 imul	 eax, ecx, 25
  02b49	8b 8c 05 e4 fe
	ff ff		 mov	 ecx, DWORD PTR _W$[ebp+eax]
  02b50	c1 e9 13	 shr	 ecx, 19			; 00000013H
  02b53	b8 04 00 00 00	 mov	 eax, 4
  02b58	6b c0 19	 imul	 eax, eax, 25
  02b5b	8b 84 05 e4 fe
	ff ff		 mov	 eax, DWORD PTR _W$[ebp+eax]
  02b62	c1 e0 0d	 shl	 eax, 13			; 0000000dH
  02b65	0b c8		 or	 ecx, eax
  02b67	33 d1		 xor	 edx, ecx
  02b69	b9 04 00 00 00	 mov	 ecx, 4
  02b6e	6b c1 19	 imul	 eax, ecx, 25
  02b71	8b 8c 05 e4 fe
	ff ff		 mov	 ecx, DWORD PTR _W$[ebp+eax]
  02b78	c1 e9 0a	 shr	 ecx, 10			; 0000000aH
  02b7b	33 d1		 xor	 edx, ecx
  02b7d	b8 04 00 00 00	 mov	 eax, 4
  02b82	6b c8 14	 imul	 ecx, eax, 20
  02b85	03 94 0d e4 fe
	ff ff		 add	 edx, DWORD PTR _W$[ebp+ecx]
  02b8c	b8 04 00 00 00	 mov	 eax, 4
  02b91	6b c8 0c	 imul	 ecx, eax, 12
  02b94	8b 84 0d e4 fe
	ff ff		 mov	 eax, DWORD PTR _W$[ebp+ecx]
  02b9b	c1 e8 07	 shr	 eax, 7
  02b9e	b9 04 00 00 00	 mov	 ecx, 4
  02ba3	6b c9 0c	 imul	 ecx, ecx, 12
  02ba6	8b 8c 0d e4 fe
	ff ff		 mov	 ecx, DWORD PTR _W$[ebp+ecx]
  02bad	c1 e1 19	 shl	 ecx, 25			; 00000019H
  02bb0	0b c1		 or	 eax, ecx
  02bb2	b9 04 00 00 00	 mov	 ecx, 4
  02bb7	6b c9 0c	 imul	 ecx, ecx, 12
  02bba	8b 8c 0d e4 fe
	ff ff		 mov	 ecx, DWORD PTR _W$[ebp+ecx]
  02bc1	c1 e9 12	 shr	 ecx, 18			; 00000012H
  02bc4	be 04 00 00 00	 mov	 esi, 4
  02bc9	6b f6 0c	 imul	 esi, esi, 12
  02bcc	8b b4 35 e4 fe
	ff ff		 mov	 esi, DWORD PTR _W$[ebp+esi]
  02bd3	c1 e6 0e	 shl	 esi, 14			; 0000000eH
  02bd6	0b ce		 or	 ecx, esi
  02bd8	33 c1		 xor	 eax, ecx
  02bda	b9 04 00 00 00	 mov	 ecx, 4
  02bdf	6b c9 0c	 imul	 ecx, ecx, 12
  02be2	8b 8c 0d e4 fe
	ff ff		 mov	 ecx, DWORD PTR _W$[ebp+ecx]
  02be9	c1 e9 03	 shr	 ecx, 3
  02bec	33 c1		 xor	 eax, ecx
  02bee	03 d0		 add	 edx, eax
  02bf0	b8 04 00 00 00	 mov	 eax, 4
  02bf5	6b c8 0b	 imul	 ecx, eax, 11
  02bf8	03 94 0d e4 fe
	ff ff		 add	 edx, DWORD PTR _W$[ebp+ecx]
  02bff	89 95 bc fd ff
	ff		 mov	 DWORD PTR tv2024[ebp], edx
  02c05	ba 04 00 00 00	 mov	 edx, 4
  02c0a	6b c2 1b	 imul	 eax, edx, 27
  02c0d	8b 8d bc fd ff
	ff		 mov	 ecx, DWORD PTR tv2024[ebp]
  02c13	89 8c 05 e4 fe
	ff ff		 mov	 DWORD PTR _W$[ebp+eax], ecx
  02c1a	8b 95 c0 fe ff
	ff		 mov	 edx, DWORD PTR _C$[ebp]
  02c20	33 95 b4 fe ff
	ff		 xor	 edx, DWORD PTR _D$[ebp]
  02c26	23 95 cc fe ff
	ff		 and	 edx, DWORD PTR _B$[ebp]
  02c2c	33 95 b4 fe ff
	ff		 xor	 edx, DWORD PTR _D$[ebp]
  02c32	8b 85 cc fe ff
	ff		 mov	 eax, DWORD PTR _B$[ebp]
  02c38	c1 e0 07	 shl	 eax, 7
  02c3b	8b 8d cc fe ff
	ff		 mov	 ecx, DWORD PTR _B$[ebp]
  02c41	c1 e9 19	 shr	 ecx, 25			; 00000019H
  02c44	0b c8		 or	 ecx, eax
  02c46	8b 85 cc fe ff
	ff		 mov	 eax, DWORD PTR _B$[ebp]
  02c4c	c1 e0 15	 shl	 eax, 21			; 00000015H
  02c4f	8b b5 cc fe ff
	ff		 mov	 esi, DWORD PTR _B$[ebp]
  02c55	c1 ee 0b	 shr	 esi, 11			; 0000000bH
  02c58	0b f0		 or	 esi, eax
  02c5a	8b 85 cc fe ff
	ff		 mov	 eax, DWORD PTR _B$[ebp]
  02c60	c1 e0 1a	 shl	 eax, 26			; 0000001aH
  02c63	8b bd cc fe ff
	ff		 mov	 edi, DWORD PTR _B$[ebp]
  02c69	c1 ef 06	 shr	 edi, 6
  02c6c	0b f8		 or	 edi, eax
  02c6e	33 fe		 xor	 edi, esi
  02c70	33 f9		 xor	 edi, ecx
  02c72	03 bd a8 fe ff
	ff		 add	 edi, DWORD PTR _E$[ebp]
  02c78	03 bd bc fd ff
	ff		 add	 edi, DWORD PTR tv2024[ebp]
  02c7e	8d 8c 3a c7 7f
	59 bf		 lea	 ecx, DWORD PTR [edx+edi-1084653625]
  02c85	89 4d f8	 mov	 DWORD PTR _temp1$[ebp], ecx
  02c88	8b 85 9c fe ff
	ff		 mov	 eax, DWORD PTR _F$[ebp]
  02c8e	c1 e8 02	 shr	 eax, 2
  02c91	8b 8d 9c fe ff
	ff		 mov	 ecx, DWORD PTR _F$[ebp]
  02c97	c1 e1 1e	 shl	 ecx, 30			; 0000001eH
  02c9a	0b c1		 or	 eax, ecx
  02c9c	8b 95 9c fe ff
	ff		 mov	 edx, DWORD PTR _F$[ebp]
  02ca2	c1 ea 0d	 shr	 edx, 13			; 0000000dH
  02ca5	8b 8d 9c fe ff
	ff		 mov	 ecx, DWORD PTR _F$[ebp]
  02cab	c1 e1 13	 shl	 ecx, 19			; 00000013H
  02cae	0b d1		 or	 edx, ecx
  02cb0	33 c2		 xor	 eax, edx
  02cb2	8b 95 9c fe ff
	ff		 mov	 edx, DWORD PTR _F$[ebp]
  02cb8	c1 ea 16	 shr	 edx, 22			; 00000016H
  02cbb	8b 8d 9c fe ff
	ff		 mov	 ecx, DWORD PTR _F$[ebp]
  02cc1	c1 e1 0a	 shl	 ecx, 10			; 0000000aH
  02cc4	0b d1		 or	 edx, ecx
  02cc6	33 c2		 xor	 eax, edx
  02cc8	8b 95 9c fe ff
	ff		 mov	 edx, DWORD PTR _F$[ebp]
  02cce	23 95 90 fe ff
	ff		 and	 edx, DWORD PTR _G$[ebp]
  02cd4	8b 8d 9c fe ff
	ff		 mov	 ecx, DWORD PTR _F$[ebp]
  02cda	0b 8d 90 fe ff
	ff		 or	 ecx, DWORD PTR _G$[ebp]
  02ce0	23 8d 84 fe ff
	ff		 and	 ecx, DWORD PTR _H$[ebp]
  02ce6	0b d1		 or	 edx, ecx
  02ce8	03 c2		 add	 eax, edx
  02cea	89 45 ec	 mov	 DWORD PTR _temp2$[ebp], eax
  02ced	8b 85 d8 fe ff
	ff		 mov	 eax, DWORD PTR _A$[ebp]
  02cf3	03 45 f8	 add	 eax, DWORD PTR _temp1$[ebp]
  02cf6	89 85 d8 fe ff
	ff		 mov	 DWORD PTR _A$[ebp], eax
  02cfc	8b 45 f8	 mov	 eax, DWORD PTR _temp1$[ebp]
  02cff	03 45 ec	 add	 eax, DWORD PTR _temp2$[ebp]
  02d02	89 85 a8 fe ff
	ff		 mov	 DWORD PTR _E$[ebp], eax

; 142  :     P( E, F, G, H, A, B, C, D, R(28), 0xC6E00BF3 );

  02d08	b8 04 00 00 00	 mov	 eax, 4
  02d0d	6b c8 1a	 imul	 ecx, eax, 26
  02d10	8b 94 0d e4 fe
	ff ff		 mov	 edx, DWORD PTR _W$[ebp+ecx]
  02d17	c1 ea 11	 shr	 edx, 17			; 00000011H
  02d1a	b8 04 00 00 00	 mov	 eax, 4
  02d1f	6b c8 1a	 imul	 ecx, eax, 26
  02d22	8b 84 0d e4 fe
	ff ff		 mov	 eax, DWORD PTR _W$[ebp+ecx]
  02d29	c1 e0 0f	 shl	 eax, 15			; 0000000fH
  02d2c	0b d0		 or	 edx, eax
  02d2e	b9 04 00 00 00	 mov	 ecx, 4
  02d33	6b c1 1a	 imul	 eax, ecx, 26
  02d36	8b 8c 05 e4 fe
	ff ff		 mov	 ecx, DWORD PTR _W$[ebp+eax]
  02d3d	c1 e9 13	 shr	 ecx, 19			; 00000013H
  02d40	b8 04 00 00 00	 mov	 eax, 4
  02d45	6b c0 1a	 imul	 eax, eax, 26
  02d48	8b 84 05 e4 fe
	ff ff		 mov	 eax, DWORD PTR _W$[ebp+eax]
  02d4f	c1 e0 0d	 shl	 eax, 13			; 0000000dH
  02d52	0b c8		 or	 ecx, eax
  02d54	33 d1		 xor	 edx, ecx
  02d56	b9 04 00 00 00	 mov	 ecx, 4
  02d5b	6b c1 1a	 imul	 eax, ecx, 26
  02d5e	8b 8c 05 e4 fe
	ff ff		 mov	 ecx, DWORD PTR _W$[ebp+eax]
  02d65	c1 e9 0a	 shr	 ecx, 10			; 0000000aH
  02d68	33 d1		 xor	 edx, ecx
  02d6a	b8 04 00 00 00	 mov	 eax, 4
  02d6f	6b c8 15	 imul	 ecx, eax, 21
  02d72	03 94 0d e4 fe
	ff ff		 add	 edx, DWORD PTR _W$[ebp+ecx]
  02d79	b8 04 00 00 00	 mov	 eax, 4
  02d7e	6b c8 0d	 imul	 ecx, eax, 13
  02d81	8b 84 0d e4 fe
	ff ff		 mov	 eax, DWORD PTR _W$[ebp+ecx]
  02d88	c1 e8 07	 shr	 eax, 7
  02d8b	b9 04 00 00 00	 mov	 ecx, 4
  02d90	6b c9 0d	 imul	 ecx, ecx, 13
  02d93	8b 8c 0d e4 fe
	ff ff		 mov	 ecx, DWORD PTR _W$[ebp+ecx]
  02d9a	c1 e1 19	 shl	 ecx, 25			; 00000019H
  02d9d	0b c1		 or	 eax, ecx
  02d9f	b9 04 00 00 00	 mov	 ecx, 4
  02da4	6b c9 0d	 imul	 ecx, ecx, 13
  02da7	8b 8c 0d e4 fe
	ff ff		 mov	 ecx, DWORD PTR _W$[ebp+ecx]
  02dae	c1 e9 12	 shr	 ecx, 18			; 00000012H
  02db1	be 04 00 00 00	 mov	 esi, 4
  02db6	6b f6 0d	 imul	 esi, esi, 13
  02db9	8b b4 35 e4 fe
	ff ff		 mov	 esi, DWORD PTR _W$[ebp+esi]
  02dc0	c1 e6 0e	 shl	 esi, 14			; 0000000eH
  02dc3	0b ce		 or	 ecx, esi
  02dc5	33 c1		 xor	 eax, ecx
  02dc7	b9 04 00 00 00	 mov	 ecx, 4
  02dcc	6b c9 0d	 imul	 ecx, ecx, 13
  02dcf	8b 8c 0d e4 fe
	ff ff		 mov	 ecx, DWORD PTR _W$[ebp+ecx]
  02dd6	c1 e9 03	 shr	 ecx, 3
  02dd9	33 c1		 xor	 eax, ecx
  02ddb	03 d0		 add	 edx, eax
  02ddd	b8 04 00 00 00	 mov	 eax, 4
  02de2	6b c8 0c	 imul	 ecx, eax, 12
  02de5	03 94 0d e4 fe
	ff ff		 add	 edx, DWORD PTR _W$[ebp+ecx]
  02dec	89 95 bc fd ff
	ff		 mov	 DWORD PTR tv2107[ebp], edx
  02df2	ba 04 00 00 00	 mov	 edx, 4
  02df7	6b c2 1c	 imul	 eax, edx, 28
  02dfa	8b 8d bc fd ff
	ff		 mov	 ecx, DWORD PTR tv2107[ebp]
  02e00	89 8c 05 e4 fe
	ff ff		 mov	 DWORD PTR _W$[ebp+eax], ecx
  02e07	8b 95 cc fe ff
	ff		 mov	 edx, DWORD PTR _B$[ebp]
  02e0d	33 95 c0 fe ff
	ff		 xor	 edx, DWORD PTR _C$[ebp]
  02e13	23 95 d8 fe ff
	ff		 and	 edx, DWORD PTR _A$[ebp]
  02e19	33 95 c0 fe ff
	ff		 xor	 edx, DWORD PTR _C$[ebp]
  02e1f	8b 85 d8 fe ff
	ff		 mov	 eax, DWORD PTR _A$[ebp]
  02e25	c1 e0 07	 shl	 eax, 7
  02e28	8b 8d d8 fe ff
	ff		 mov	 ecx, DWORD PTR _A$[ebp]
  02e2e	c1 e9 19	 shr	 ecx, 25			; 00000019H
  02e31	0b c8		 or	 ecx, eax
  02e33	8b 85 d8 fe ff
	ff		 mov	 eax, DWORD PTR _A$[ebp]
  02e39	c1 e0 15	 shl	 eax, 21			; 00000015H
  02e3c	8b b5 d8 fe ff
	ff		 mov	 esi, DWORD PTR _A$[ebp]
  02e42	c1 ee 0b	 shr	 esi, 11			; 0000000bH
  02e45	0b f0		 or	 esi, eax
  02e47	8b 85 d8 fe ff
	ff		 mov	 eax, DWORD PTR _A$[ebp]
  02e4d	c1 e0 1a	 shl	 eax, 26			; 0000001aH
  02e50	8b bd d8 fe ff
	ff		 mov	 edi, DWORD PTR _A$[ebp]
  02e56	c1 ef 06	 shr	 edi, 6
  02e59	0b f8		 or	 edi, eax
  02e5b	33 fe		 xor	 edi, esi
  02e5d	33 f9		 xor	 edi, ecx
  02e5f	03 bd b4 fe ff
	ff		 add	 edi, DWORD PTR _D$[ebp]
  02e65	03 bd bc fd ff
	ff		 add	 edi, DWORD PTR tv2107[ebp]
  02e6b	8d 8c 3a f3 0b
	e0 c6		 lea	 ecx, DWORD PTR [edx+edi-958395405]
  02e72	89 4d f8	 mov	 DWORD PTR _temp1$[ebp], ecx
  02e75	8b 85 a8 fe ff
	ff		 mov	 eax, DWORD PTR _E$[ebp]
  02e7b	c1 e8 02	 shr	 eax, 2
  02e7e	8b 8d a8 fe ff
	ff		 mov	 ecx, DWORD PTR _E$[ebp]
  02e84	c1 e1 1e	 shl	 ecx, 30			; 0000001eH
  02e87	0b c1		 or	 eax, ecx
  02e89	8b 95 a8 fe ff
	ff		 mov	 edx, DWORD PTR _E$[ebp]
  02e8f	c1 ea 0d	 shr	 edx, 13			; 0000000dH
  02e92	8b 8d a8 fe ff
	ff		 mov	 ecx, DWORD PTR _E$[ebp]
  02e98	c1 e1 13	 shl	 ecx, 19			; 00000013H
  02e9b	0b d1		 or	 edx, ecx
  02e9d	33 c2		 xor	 eax, edx
  02e9f	8b 95 a8 fe ff
	ff		 mov	 edx, DWORD PTR _E$[ebp]
  02ea5	c1 ea 16	 shr	 edx, 22			; 00000016H
  02ea8	8b 8d a8 fe ff
	ff		 mov	 ecx, DWORD PTR _E$[ebp]
  02eae	c1 e1 0a	 shl	 ecx, 10			; 0000000aH
  02eb1	0b d1		 or	 edx, ecx
  02eb3	33 c2		 xor	 eax, edx
  02eb5	8b 95 a8 fe ff
	ff		 mov	 edx, DWORD PTR _E$[ebp]
  02ebb	23 95 9c fe ff
	ff		 and	 edx, DWORD PTR _F$[ebp]
  02ec1	8b 8d a8 fe ff
	ff		 mov	 ecx, DWORD PTR _E$[ebp]
  02ec7	0b 8d 9c fe ff
	ff		 or	 ecx, DWORD PTR _F$[ebp]
  02ecd	23 8d 90 fe ff
	ff		 and	 ecx, DWORD PTR _G$[ebp]
  02ed3	0b d1		 or	 edx, ecx
  02ed5	03 c2		 add	 eax, edx
  02ed7	89 45 ec	 mov	 DWORD PTR _temp2$[ebp], eax
  02eda	8b 85 84 fe ff
	ff		 mov	 eax, DWORD PTR _H$[ebp]
  02ee0	03 45 f8	 add	 eax, DWORD PTR _temp1$[ebp]
  02ee3	89 85 84 fe ff
	ff		 mov	 DWORD PTR _H$[ebp], eax
  02ee9	8b 45 f8	 mov	 eax, DWORD PTR _temp1$[ebp]
  02eec	03 45 ec	 add	 eax, DWORD PTR _temp2$[ebp]
  02eef	89 85 b4 fe ff
	ff		 mov	 DWORD PTR _D$[ebp], eax

; 143  :     P( D, E, F, G, H, A, B, C, R(29), 0xD5A79147 );

  02ef5	b8 04 00 00 00	 mov	 eax, 4
  02efa	6b c8 1b	 imul	 ecx, eax, 27
  02efd	8b 94 0d e4 fe
	ff ff		 mov	 edx, DWORD PTR _W$[ebp+ecx]
  02f04	c1 ea 11	 shr	 edx, 17			; 00000011H
  02f07	b8 04 00 00 00	 mov	 eax, 4
  02f0c	6b c8 1b	 imul	 ecx, eax, 27
  02f0f	8b 84 0d e4 fe
	ff ff		 mov	 eax, DWORD PTR _W$[ebp+ecx]
  02f16	c1 e0 0f	 shl	 eax, 15			; 0000000fH
  02f19	0b d0		 or	 edx, eax
  02f1b	b9 04 00 00 00	 mov	 ecx, 4
  02f20	6b c1 1b	 imul	 eax, ecx, 27
  02f23	8b 8c 05 e4 fe
	ff ff		 mov	 ecx, DWORD PTR _W$[ebp+eax]
  02f2a	c1 e9 13	 shr	 ecx, 19			; 00000013H
  02f2d	b8 04 00 00 00	 mov	 eax, 4
  02f32	6b c0 1b	 imul	 eax, eax, 27
  02f35	8b 84 05 e4 fe
	ff ff		 mov	 eax, DWORD PTR _W$[ebp+eax]
  02f3c	c1 e0 0d	 shl	 eax, 13			; 0000000dH
  02f3f	0b c8		 or	 ecx, eax
  02f41	33 d1		 xor	 edx, ecx
  02f43	b9 04 00 00 00	 mov	 ecx, 4
  02f48	6b c1 1b	 imul	 eax, ecx, 27
  02f4b	8b 8c 05 e4 fe
	ff ff		 mov	 ecx, DWORD PTR _W$[ebp+eax]
  02f52	c1 e9 0a	 shr	 ecx, 10			; 0000000aH
  02f55	33 d1		 xor	 edx, ecx
  02f57	b8 04 00 00 00	 mov	 eax, 4
  02f5c	6b c8 16	 imul	 ecx, eax, 22
  02f5f	03 94 0d e4 fe
	ff ff		 add	 edx, DWORD PTR _W$[ebp+ecx]
  02f66	b8 04 00 00 00	 mov	 eax, 4
  02f6b	6b c8 0e	 imul	 ecx, eax, 14
  02f6e	8b 84 0d e4 fe
	ff ff		 mov	 eax, DWORD PTR _W$[ebp+ecx]
  02f75	c1 e8 07	 shr	 eax, 7
  02f78	b9 04 00 00 00	 mov	 ecx, 4
  02f7d	6b c9 0e	 imul	 ecx, ecx, 14
  02f80	8b 8c 0d e4 fe
	ff ff		 mov	 ecx, DWORD PTR _W$[ebp+ecx]
  02f87	c1 e1 19	 shl	 ecx, 25			; 00000019H
  02f8a	0b c1		 or	 eax, ecx
  02f8c	b9 04 00 00 00	 mov	 ecx, 4
  02f91	6b c9 0e	 imul	 ecx, ecx, 14
  02f94	8b 8c 0d e4 fe
	ff ff		 mov	 ecx, DWORD PTR _W$[ebp+ecx]
  02f9b	c1 e9 12	 shr	 ecx, 18			; 00000012H
  02f9e	be 04 00 00 00	 mov	 esi, 4
  02fa3	6b f6 0e	 imul	 esi, esi, 14
  02fa6	8b b4 35 e4 fe
	ff ff		 mov	 esi, DWORD PTR _W$[ebp+esi]
  02fad	c1 e6 0e	 shl	 esi, 14			; 0000000eH
  02fb0	0b ce		 or	 ecx, esi
  02fb2	33 c1		 xor	 eax, ecx
  02fb4	b9 04 00 00 00	 mov	 ecx, 4
  02fb9	6b c9 0e	 imul	 ecx, ecx, 14
  02fbc	8b 8c 0d e4 fe
	ff ff		 mov	 ecx, DWORD PTR _W$[ebp+ecx]
  02fc3	c1 e9 03	 shr	 ecx, 3
  02fc6	33 c1		 xor	 eax, ecx
  02fc8	03 d0		 add	 edx, eax
  02fca	b8 04 00 00 00	 mov	 eax, 4
  02fcf	6b c8 0d	 imul	 ecx, eax, 13
  02fd2	03 94 0d e4 fe
	ff ff		 add	 edx, DWORD PTR _W$[ebp+ecx]
  02fd9	89 95 bc fd ff
	ff		 mov	 DWORD PTR tv2190[ebp], edx
  02fdf	ba 04 00 00 00	 mov	 edx, 4
  02fe4	6b c2 1d	 imul	 eax, edx, 29
  02fe7	8b 8d bc fd ff
	ff		 mov	 ecx, DWORD PTR tv2190[ebp]
  02fed	89 8c 05 e4 fe
	ff ff		 mov	 DWORD PTR _W$[ebp+eax], ecx
  02ff4	8b 95 d8 fe ff
	ff		 mov	 edx, DWORD PTR _A$[ebp]
  02ffa	33 95 cc fe ff
	ff		 xor	 edx, DWORD PTR _B$[ebp]
  03000	23 95 84 fe ff
	ff		 and	 edx, DWORD PTR _H$[ebp]
  03006	33 95 cc fe ff
	ff		 xor	 edx, DWORD PTR _B$[ebp]
  0300c	8b 85 84 fe ff
	ff		 mov	 eax, DWORD PTR _H$[ebp]
  03012	c1 e0 07	 shl	 eax, 7
  03015	8b 8d 84 fe ff
	ff		 mov	 ecx, DWORD PTR _H$[ebp]
  0301b	c1 e9 19	 shr	 ecx, 25			; 00000019H
  0301e	0b c8		 or	 ecx, eax
  03020	8b 85 84 fe ff
	ff		 mov	 eax, DWORD PTR _H$[ebp]
  03026	c1 e0 15	 shl	 eax, 21			; 00000015H
  03029	8b b5 84 fe ff
	ff		 mov	 esi, DWORD PTR _H$[ebp]
  0302f	c1 ee 0b	 shr	 esi, 11			; 0000000bH
  03032	0b f0		 or	 esi, eax
  03034	8b 85 84 fe ff
	ff		 mov	 eax, DWORD PTR _H$[ebp]
  0303a	c1 e0 1a	 shl	 eax, 26			; 0000001aH
  0303d	8b bd 84 fe ff
	ff		 mov	 edi, DWORD PTR _H$[ebp]
  03043	c1 ef 06	 shr	 edi, 6
  03046	0b f8		 or	 edi, eax
  03048	33 fe		 xor	 edi, esi
  0304a	33 f9		 xor	 edi, ecx
  0304c	03 bd c0 fe ff
	ff		 add	 edi, DWORD PTR _C$[ebp]
  03052	03 bd bc fd ff
	ff		 add	 edi, DWORD PTR tv2190[ebp]
  03058	8d 8c 3a 47 91
	a7 d5		 lea	 ecx, DWORD PTR [edx+edi-710438585]
  0305f	89 4d f8	 mov	 DWORD PTR _temp1$[ebp], ecx
  03062	8b 85 b4 fe ff
	ff		 mov	 eax, DWORD PTR _D$[ebp]
  03068	c1 e8 02	 shr	 eax, 2
  0306b	8b 8d b4 fe ff
	ff		 mov	 ecx, DWORD PTR _D$[ebp]
  03071	c1 e1 1e	 shl	 ecx, 30			; 0000001eH
  03074	0b c1		 or	 eax, ecx
  03076	8b 95 b4 fe ff
	ff		 mov	 edx, DWORD PTR _D$[ebp]
  0307c	c1 ea 0d	 shr	 edx, 13			; 0000000dH
  0307f	8b 8d b4 fe ff
	ff		 mov	 ecx, DWORD PTR _D$[ebp]
  03085	c1 e1 13	 shl	 ecx, 19			; 00000013H
  03088	0b d1		 or	 edx, ecx
  0308a	33 c2		 xor	 eax, edx
  0308c	8b 95 b4 fe ff
	ff		 mov	 edx, DWORD PTR _D$[ebp]
  03092	c1 ea 16	 shr	 edx, 22			; 00000016H
  03095	8b 8d b4 fe ff
	ff		 mov	 ecx, DWORD PTR _D$[ebp]
  0309b	c1 e1 0a	 shl	 ecx, 10			; 0000000aH
  0309e	0b d1		 or	 edx, ecx
  030a0	33 c2		 xor	 eax, edx
  030a2	8b 95 b4 fe ff
	ff		 mov	 edx, DWORD PTR _D$[ebp]
  030a8	23 95 a8 fe ff
	ff		 and	 edx, DWORD PTR _E$[ebp]
  030ae	8b 8d b4 fe ff
	ff		 mov	 ecx, DWORD PTR _D$[ebp]
  030b4	0b 8d a8 fe ff
	ff		 or	 ecx, DWORD PTR _E$[ebp]
  030ba	23 8d 9c fe ff
	ff		 and	 ecx, DWORD PTR _F$[ebp]
  030c0	0b d1		 or	 edx, ecx
  030c2	03 c2		 add	 eax, edx
  030c4	89 45 ec	 mov	 DWORD PTR _temp2$[ebp], eax
  030c7	8b 85 90 fe ff
	ff		 mov	 eax, DWORD PTR _G$[ebp]
  030cd	03 45 f8	 add	 eax, DWORD PTR _temp1$[ebp]
  030d0	89 85 90 fe ff
	ff		 mov	 DWORD PTR _G$[ebp], eax
  030d6	8b 45 f8	 mov	 eax, DWORD PTR _temp1$[ebp]
  030d9	03 45 ec	 add	 eax, DWORD PTR _temp2$[ebp]
  030dc	89 85 c0 fe ff
	ff		 mov	 DWORD PTR _C$[ebp], eax

; 144  :     P( C, D, E, F, G, H, A, B, R(30), 0x06CA6351 );

  030e2	b8 04 00 00 00	 mov	 eax, 4
  030e7	6b c8 1c	 imul	 ecx, eax, 28
  030ea	8b 94 0d e4 fe
	ff ff		 mov	 edx, DWORD PTR _W$[ebp+ecx]
  030f1	c1 ea 11	 shr	 edx, 17			; 00000011H
  030f4	b8 04 00 00 00	 mov	 eax, 4
  030f9	6b c8 1c	 imul	 ecx, eax, 28
  030fc	8b 84 0d e4 fe
	ff ff		 mov	 eax, DWORD PTR _W$[ebp+ecx]
  03103	c1 e0 0f	 shl	 eax, 15			; 0000000fH
  03106	0b d0		 or	 edx, eax
  03108	b9 04 00 00 00	 mov	 ecx, 4
  0310d	6b c1 1c	 imul	 eax, ecx, 28
  03110	8b 8c 05 e4 fe
	ff ff		 mov	 ecx, DWORD PTR _W$[ebp+eax]
  03117	c1 e9 13	 shr	 ecx, 19			; 00000013H
  0311a	b8 04 00 00 00	 mov	 eax, 4
  0311f	6b c0 1c	 imul	 eax, eax, 28
  03122	8b 84 05 e4 fe
	ff ff		 mov	 eax, DWORD PTR _W$[ebp+eax]
  03129	c1 e0 0d	 shl	 eax, 13			; 0000000dH
  0312c	0b c8		 or	 ecx, eax
  0312e	33 d1		 xor	 edx, ecx
  03130	b9 04 00 00 00	 mov	 ecx, 4
  03135	6b c1 1c	 imul	 eax, ecx, 28
  03138	8b 8c 05 e4 fe
	ff ff		 mov	 ecx, DWORD PTR _W$[ebp+eax]
  0313f	c1 e9 0a	 shr	 ecx, 10			; 0000000aH
  03142	33 d1		 xor	 edx, ecx
  03144	b8 04 00 00 00	 mov	 eax, 4
  03149	6b c8 17	 imul	 ecx, eax, 23
  0314c	03 94 0d e4 fe
	ff ff		 add	 edx, DWORD PTR _W$[ebp+ecx]
  03153	b8 04 00 00 00	 mov	 eax, 4
  03158	6b c8 0f	 imul	 ecx, eax, 15
  0315b	8b 84 0d e4 fe
	ff ff		 mov	 eax, DWORD PTR _W$[ebp+ecx]
  03162	c1 e8 07	 shr	 eax, 7
  03165	b9 04 00 00 00	 mov	 ecx, 4
  0316a	6b c9 0f	 imul	 ecx, ecx, 15
  0316d	8b 8c 0d e4 fe
	ff ff		 mov	 ecx, DWORD PTR _W$[ebp+ecx]
  03174	c1 e1 19	 shl	 ecx, 25			; 00000019H
  03177	0b c1		 or	 eax, ecx
  03179	b9 04 00 00 00	 mov	 ecx, 4
  0317e	6b c9 0f	 imul	 ecx, ecx, 15
  03181	8b 8c 0d e4 fe
	ff ff		 mov	 ecx, DWORD PTR _W$[ebp+ecx]
  03188	c1 e9 12	 shr	 ecx, 18			; 00000012H
  0318b	be 04 00 00 00	 mov	 esi, 4
  03190	6b f6 0f	 imul	 esi, esi, 15
  03193	8b b4 35 e4 fe
	ff ff		 mov	 esi, DWORD PTR _W$[ebp+esi]
  0319a	c1 e6 0e	 shl	 esi, 14			; 0000000eH
  0319d	0b ce		 or	 ecx, esi
  0319f	33 c1		 xor	 eax, ecx
  031a1	b9 04 00 00 00	 mov	 ecx, 4
  031a6	6b c9 0f	 imul	 ecx, ecx, 15
  031a9	8b 8c 0d e4 fe
	ff ff		 mov	 ecx, DWORD PTR _W$[ebp+ecx]
  031b0	c1 e9 03	 shr	 ecx, 3
  031b3	33 c1		 xor	 eax, ecx
  031b5	03 d0		 add	 edx, eax
  031b7	b8 04 00 00 00	 mov	 eax, 4
  031bc	6b c8 0e	 imul	 ecx, eax, 14
  031bf	03 94 0d e4 fe
	ff ff		 add	 edx, DWORD PTR _W$[ebp+ecx]
  031c6	89 95 bc fd ff
	ff		 mov	 DWORD PTR tv2273[ebp], edx
  031cc	ba 04 00 00 00	 mov	 edx, 4
  031d1	6b c2 1e	 imul	 eax, edx, 30
  031d4	8b 8d bc fd ff
	ff		 mov	 ecx, DWORD PTR tv2273[ebp]
  031da	89 8c 05 e4 fe
	ff ff		 mov	 DWORD PTR _W$[ebp+eax], ecx
  031e1	8b 95 84 fe ff
	ff		 mov	 edx, DWORD PTR _H$[ebp]
  031e7	33 95 d8 fe ff
	ff		 xor	 edx, DWORD PTR _A$[ebp]
  031ed	23 95 90 fe ff
	ff		 and	 edx, DWORD PTR _G$[ebp]
  031f3	33 95 d8 fe ff
	ff		 xor	 edx, DWORD PTR _A$[ebp]
  031f9	8b 85 90 fe ff
	ff		 mov	 eax, DWORD PTR _G$[ebp]
  031ff	c1 e0 07	 shl	 eax, 7
  03202	8b 8d 90 fe ff
	ff		 mov	 ecx, DWORD PTR _G$[ebp]
  03208	c1 e9 19	 shr	 ecx, 25			; 00000019H
  0320b	0b c8		 or	 ecx, eax
  0320d	8b 85 90 fe ff
	ff		 mov	 eax, DWORD PTR _G$[ebp]
  03213	c1 e0 15	 shl	 eax, 21			; 00000015H
  03216	8b b5 90 fe ff
	ff		 mov	 esi, DWORD PTR _G$[ebp]
  0321c	c1 ee 0b	 shr	 esi, 11			; 0000000bH
  0321f	0b f0		 or	 esi, eax
  03221	8b 85 90 fe ff
	ff		 mov	 eax, DWORD PTR _G$[ebp]
  03227	c1 e0 1a	 shl	 eax, 26			; 0000001aH
  0322a	8b bd 90 fe ff
	ff		 mov	 edi, DWORD PTR _G$[ebp]
  03230	c1 ef 06	 shr	 edi, 6
  03233	0b f8		 or	 edi, eax
  03235	33 fe		 xor	 edi, esi
  03237	33 f9		 xor	 edi, ecx
  03239	03 bd cc fe ff
	ff		 add	 edi, DWORD PTR _B$[ebp]
  0323f	03 bd bc fd ff
	ff		 add	 edi, DWORD PTR tv2273[ebp]
  03245	8d 8c 3a 51 63
	ca 06		 lea	 ecx, DWORD PTR [edx+edi+113926993]
  0324c	89 4d f8	 mov	 DWORD PTR _temp1$[ebp], ecx
  0324f	8b 85 c0 fe ff
	ff		 mov	 eax, DWORD PTR _C$[ebp]
  03255	c1 e8 02	 shr	 eax, 2
  03258	8b 8d c0 fe ff
	ff		 mov	 ecx, DWORD PTR _C$[ebp]
  0325e	c1 e1 1e	 shl	 ecx, 30			; 0000001eH
  03261	0b c1		 or	 eax, ecx
  03263	8b 95 c0 fe ff
	ff		 mov	 edx, DWORD PTR _C$[ebp]
  03269	c1 ea 0d	 shr	 edx, 13			; 0000000dH
  0326c	8b 8d c0 fe ff
	ff		 mov	 ecx, DWORD PTR _C$[ebp]
  03272	c1 e1 13	 shl	 ecx, 19			; 00000013H
  03275	0b d1		 or	 edx, ecx
  03277	33 c2		 xor	 eax, edx
  03279	8b 95 c0 fe ff
	ff		 mov	 edx, DWORD PTR _C$[ebp]
  0327f	c1 ea 16	 shr	 edx, 22			; 00000016H
  03282	8b 8d c0 fe ff
	ff		 mov	 ecx, DWORD PTR _C$[ebp]
  03288	c1 e1 0a	 shl	 ecx, 10			; 0000000aH
  0328b	0b d1		 or	 edx, ecx
  0328d	33 c2		 xor	 eax, edx
  0328f	8b 95 c0 fe ff
	ff		 mov	 edx, DWORD PTR _C$[ebp]
  03295	23 95 b4 fe ff
	ff		 and	 edx, DWORD PTR _D$[ebp]
  0329b	8b 8d c0 fe ff
	ff		 mov	 ecx, DWORD PTR _C$[ebp]
  032a1	0b 8d b4 fe ff
	ff		 or	 ecx, DWORD PTR _D$[ebp]
  032a7	23 8d a8 fe ff
	ff		 and	 ecx, DWORD PTR _E$[ebp]
  032ad	0b d1		 or	 edx, ecx
  032af	03 c2		 add	 eax, edx
  032b1	89 45 ec	 mov	 DWORD PTR _temp2$[ebp], eax
  032b4	8b 85 9c fe ff
	ff		 mov	 eax, DWORD PTR _F$[ebp]
  032ba	03 45 f8	 add	 eax, DWORD PTR _temp1$[ebp]
  032bd	89 85 9c fe ff
	ff		 mov	 DWORD PTR _F$[ebp], eax
  032c3	8b 45 f8	 mov	 eax, DWORD PTR _temp1$[ebp]
  032c6	03 45 ec	 add	 eax, DWORD PTR _temp2$[ebp]
  032c9	89 85 cc fe ff
	ff		 mov	 DWORD PTR _B$[ebp], eax

; 145  :     P( B, C, D, E, F, G, H, A, R(31), 0x14292967 );

  032cf	b8 04 00 00 00	 mov	 eax, 4
  032d4	6b c8 1d	 imul	 ecx, eax, 29
  032d7	8b 94 0d e4 fe
	ff ff		 mov	 edx, DWORD PTR _W$[ebp+ecx]
  032de	c1 ea 11	 shr	 edx, 17			; 00000011H
  032e1	b8 04 00 00 00	 mov	 eax, 4
  032e6	6b c8 1d	 imul	 ecx, eax, 29
  032e9	8b 84 0d e4 fe
	ff ff		 mov	 eax, DWORD PTR _W$[ebp+ecx]
  032f0	c1 e0 0f	 shl	 eax, 15			; 0000000fH
  032f3	0b d0		 or	 edx, eax
  032f5	b9 04 00 00 00	 mov	 ecx, 4
  032fa	6b c1 1d	 imul	 eax, ecx, 29
  032fd	8b 8c 05 e4 fe
	ff ff		 mov	 ecx, DWORD PTR _W$[ebp+eax]
  03304	c1 e9 13	 shr	 ecx, 19			; 00000013H
  03307	b8 04 00 00 00	 mov	 eax, 4
  0330c	6b c0 1d	 imul	 eax, eax, 29
  0330f	8b 84 05 e4 fe
	ff ff		 mov	 eax, DWORD PTR _W$[ebp+eax]
  03316	c1 e0 0d	 shl	 eax, 13			; 0000000dH
  03319	0b c8		 or	 ecx, eax
  0331b	33 d1		 xor	 edx, ecx
  0331d	b9 04 00 00 00	 mov	 ecx, 4
  03322	6b c1 1d	 imul	 eax, ecx, 29
  03325	8b 8c 05 e4 fe
	ff ff		 mov	 ecx, DWORD PTR _W$[ebp+eax]
  0332c	c1 e9 0a	 shr	 ecx, 10			; 0000000aH
  0332f	33 d1		 xor	 edx, ecx
  03331	b8 04 00 00 00	 mov	 eax, 4
  03336	6b c8 18	 imul	 ecx, eax, 24
  03339	03 94 0d e4 fe
	ff ff		 add	 edx, DWORD PTR _W$[ebp+ecx]
  03340	b8 04 00 00 00	 mov	 eax, 4
  03345	c1 e0 04	 shl	 eax, 4
  03348	8b 8c 05 e4 fe
	ff ff		 mov	 ecx, DWORD PTR _W$[ebp+eax]
  0334f	c1 e9 07	 shr	 ecx, 7
  03352	b8 04 00 00 00	 mov	 eax, 4
  03357	c1 e0 04	 shl	 eax, 4
  0335a	8b 84 05 e4 fe
	ff ff		 mov	 eax, DWORD PTR _W$[ebp+eax]
  03361	c1 e0 19	 shl	 eax, 25			; 00000019H
  03364	0b c8		 or	 ecx, eax
  03366	b8 04 00 00 00	 mov	 eax, 4
  0336b	c1 e0 04	 shl	 eax, 4
  0336e	8b 84 05 e4 fe
	ff ff		 mov	 eax, DWORD PTR _W$[ebp+eax]
  03375	c1 e8 12	 shr	 eax, 18			; 00000012H
  03378	be 04 00 00 00	 mov	 esi, 4
  0337d	c1 e6 04	 shl	 esi, 4
  03380	8b b4 35 e4 fe
	ff ff		 mov	 esi, DWORD PTR _W$[ebp+esi]
  03387	c1 e6 0e	 shl	 esi, 14			; 0000000eH
  0338a	0b c6		 or	 eax, esi
  0338c	33 c8		 xor	 ecx, eax
  0338e	b8 04 00 00 00	 mov	 eax, 4
  03393	c1 e0 04	 shl	 eax, 4
  03396	8b 84 05 e4 fe
	ff ff		 mov	 eax, DWORD PTR _W$[ebp+eax]
  0339d	c1 e8 03	 shr	 eax, 3
  033a0	33 c8		 xor	 ecx, eax
  033a2	03 d1		 add	 edx, ecx
  033a4	b9 04 00 00 00	 mov	 ecx, 4
  033a9	6b c1 0f	 imul	 eax, ecx, 15
  033ac	03 94 05 e4 fe
	ff ff		 add	 edx, DWORD PTR _W$[ebp+eax]
  033b3	89 95 bc fd ff
	ff		 mov	 DWORD PTR tv2356[ebp], edx
  033b9	b9 04 00 00 00	 mov	 ecx, 4
  033be	6b d1 1f	 imul	 edx, ecx, 31
  033c1	8b 85 bc fd ff
	ff		 mov	 eax, DWORD PTR tv2356[ebp]
  033c7	89 84 15 e4 fe
	ff ff		 mov	 DWORD PTR _W$[ebp+edx], eax
  033ce	8b 8d 90 fe ff
	ff		 mov	 ecx, DWORD PTR _G$[ebp]
  033d4	33 8d 84 fe ff
	ff		 xor	 ecx, DWORD PTR _H$[ebp]
  033da	23 8d 9c fe ff
	ff		 and	 ecx, DWORD PTR _F$[ebp]
  033e0	33 8d 84 fe ff
	ff		 xor	 ecx, DWORD PTR _H$[ebp]
  033e6	8b 95 9c fe ff
	ff		 mov	 edx, DWORD PTR _F$[ebp]
  033ec	c1 e2 07	 shl	 edx, 7
  033ef	8b 85 9c fe ff
	ff		 mov	 eax, DWORD PTR _F$[ebp]
  033f5	c1 e8 19	 shr	 eax, 25			; 00000019H
  033f8	0b c2		 or	 eax, edx
  033fa	8b 95 9c fe ff
	ff		 mov	 edx, DWORD PTR _F$[ebp]
  03400	c1 e2 15	 shl	 edx, 21			; 00000015H
  03403	8b b5 9c fe ff
	ff		 mov	 esi, DWORD PTR _F$[ebp]
  03409	c1 ee 0b	 shr	 esi, 11			; 0000000bH
  0340c	0b f2		 or	 esi, edx
  0340e	8b 95 9c fe ff
	ff		 mov	 edx, DWORD PTR _F$[ebp]
  03414	c1 e2 1a	 shl	 edx, 26			; 0000001aH
  03417	8b bd 9c fe ff
	ff		 mov	 edi, DWORD PTR _F$[ebp]
  0341d	c1 ef 06	 shr	 edi, 6
  03420	0b fa		 or	 edi, edx
  03422	33 fe		 xor	 edi, esi
  03424	33 f8		 xor	 edi, eax
  03426	03 bd d8 fe ff
	ff		 add	 edi, DWORD PTR _A$[ebp]
  0342c	03 bd bc fd ff
	ff		 add	 edi, DWORD PTR tv2356[ebp]
  03432	8d 84 39 67 29
	29 14		 lea	 eax, DWORD PTR [ecx+edi+338241895]
  03439	89 45 f8	 mov	 DWORD PTR _temp1$[ebp], eax
  0343c	8b 85 cc fe ff
	ff		 mov	 eax, DWORD PTR _B$[ebp]
  03442	c1 e8 02	 shr	 eax, 2
  03445	8b 8d cc fe ff
	ff		 mov	 ecx, DWORD PTR _B$[ebp]
  0344b	c1 e1 1e	 shl	 ecx, 30			; 0000001eH
  0344e	0b c1		 or	 eax, ecx
  03450	8b 95 cc fe ff
	ff		 mov	 edx, DWORD PTR _B$[ebp]
  03456	c1 ea 0d	 shr	 edx, 13			; 0000000dH
  03459	8b 8d cc fe ff
	ff		 mov	 ecx, DWORD PTR _B$[ebp]
  0345f	c1 e1 13	 shl	 ecx, 19			; 00000013H
  03462	0b d1		 or	 edx, ecx
  03464	33 c2		 xor	 eax, edx
  03466	8b 95 cc fe ff
	ff		 mov	 edx, DWORD PTR _B$[ebp]
  0346c	c1 ea 16	 shr	 edx, 22			; 00000016H
  0346f	8b 8d cc fe ff
	ff		 mov	 ecx, DWORD PTR _B$[ebp]
  03475	c1 e1 0a	 shl	 ecx, 10			; 0000000aH
  03478	0b d1		 or	 edx, ecx
  0347a	33 c2		 xor	 eax, edx
  0347c	8b 95 cc fe ff
	ff		 mov	 edx, DWORD PTR _B$[ebp]
  03482	23 95 c0 fe ff
	ff		 and	 edx, DWORD PTR _C$[ebp]
  03488	8b 8d cc fe ff
	ff		 mov	 ecx, DWORD PTR _B$[ebp]
  0348e	0b 8d c0 fe ff
	ff		 or	 ecx, DWORD PTR _C$[ebp]
  03494	23 8d b4 fe ff
	ff		 and	 ecx, DWORD PTR _D$[ebp]
  0349a	0b d1		 or	 edx, ecx
  0349c	03 c2		 add	 eax, edx
  0349e	89 45 ec	 mov	 DWORD PTR _temp2$[ebp], eax
  034a1	8b 85 a8 fe ff
	ff		 mov	 eax, DWORD PTR _E$[ebp]
  034a7	03 45 f8	 add	 eax, DWORD PTR _temp1$[ebp]
  034aa	89 85 a8 fe ff
	ff		 mov	 DWORD PTR _E$[ebp], eax
  034b0	8b 45 f8	 mov	 eax, DWORD PTR _temp1$[ebp]
  034b3	03 45 ec	 add	 eax, DWORD PTR _temp2$[ebp]
  034b6	89 85 d8 fe ff
	ff		 mov	 DWORD PTR _A$[ebp], eax

; 146  :     P( A, B, C, D, E, F, G, H, R(32), 0x27B70A85 );

  034bc	b8 04 00 00 00	 mov	 eax, 4
  034c1	6b c8 1e	 imul	 ecx, eax, 30
  034c4	8b 94 0d e4 fe
	ff ff		 mov	 edx, DWORD PTR _W$[ebp+ecx]
  034cb	c1 ea 11	 shr	 edx, 17			; 00000011H
  034ce	b8 04 00 00 00	 mov	 eax, 4
  034d3	6b c8 1e	 imul	 ecx, eax, 30
  034d6	8b 84 0d e4 fe
	ff ff		 mov	 eax, DWORD PTR _W$[ebp+ecx]
  034dd	c1 e0 0f	 shl	 eax, 15			; 0000000fH
  034e0	0b d0		 or	 edx, eax
  034e2	b9 04 00 00 00	 mov	 ecx, 4
  034e7	6b c1 1e	 imul	 eax, ecx, 30
  034ea	8b 8c 05 e4 fe
	ff ff		 mov	 ecx, DWORD PTR _W$[ebp+eax]
  034f1	c1 e9 13	 shr	 ecx, 19			; 00000013H
  034f4	b8 04 00 00 00	 mov	 eax, 4
  034f9	6b c0 1e	 imul	 eax, eax, 30
  034fc	8b 84 05 e4 fe
	ff ff		 mov	 eax, DWORD PTR _W$[ebp+eax]
  03503	c1 e0 0d	 shl	 eax, 13			; 0000000dH
  03506	0b c8		 or	 ecx, eax
  03508	33 d1		 xor	 edx, ecx
  0350a	b9 04 00 00 00	 mov	 ecx, 4
  0350f	6b c1 1e	 imul	 eax, ecx, 30
  03512	8b 8c 05 e4 fe
	ff ff		 mov	 ecx, DWORD PTR _W$[ebp+eax]
  03519	c1 e9 0a	 shr	 ecx, 10			; 0000000aH
  0351c	33 d1		 xor	 edx, ecx
  0351e	b8 04 00 00 00	 mov	 eax, 4
  03523	6b c8 19	 imul	 ecx, eax, 25
  03526	03 94 0d e4 fe
	ff ff		 add	 edx, DWORD PTR _W$[ebp+ecx]
  0352d	b8 04 00 00 00	 mov	 eax, 4
  03532	6b c8 11	 imul	 ecx, eax, 17
  03535	8b 84 0d e4 fe
	ff ff		 mov	 eax, DWORD PTR _W$[ebp+ecx]
  0353c	c1 e8 07	 shr	 eax, 7
  0353f	b9 04 00 00 00	 mov	 ecx, 4
  03544	6b c9 11	 imul	 ecx, ecx, 17
  03547	8b 8c 0d e4 fe
	ff ff		 mov	 ecx, DWORD PTR _W$[ebp+ecx]
  0354e	c1 e1 19	 shl	 ecx, 25			; 00000019H
  03551	0b c1		 or	 eax, ecx
  03553	b9 04 00 00 00	 mov	 ecx, 4
  03558	6b c9 11	 imul	 ecx, ecx, 17
  0355b	8b 8c 0d e4 fe
	ff ff		 mov	 ecx, DWORD PTR _W$[ebp+ecx]
  03562	c1 e9 12	 shr	 ecx, 18			; 00000012H
  03565	be 04 00 00 00	 mov	 esi, 4
  0356a	6b f6 11	 imul	 esi, esi, 17
  0356d	8b b4 35 e4 fe
	ff ff		 mov	 esi, DWORD PTR _W$[ebp+esi]
  03574	c1 e6 0e	 shl	 esi, 14			; 0000000eH
  03577	0b ce		 or	 ecx, esi
  03579	33 c1		 xor	 eax, ecx
  0357b	b9 04 00 00 00	 mov	 ecx, 4
  03580	6b c9 11	 imul	 ecx, ecx, 17
  03583	8b 8c 0d e4 fe
	ff ff		 mov	 ecx, DWORD PTR _W$[ebp+ecx]
  0358a	c1 e9 03	 shr	 ecx, 3
  0358d	33 c1		 xor	 eax, ecx
  0358f	03 d0		 add	 edx, eax
  03591	b8 04 00 00 00	 mov	 eax, 4
  03596	c1 e0 04	 shl	 eax, 4
  03599	03 94 05 e4 fe
	ff ff		 add	 edx, DWORD PTR _W$[ebp+eax]
  035a0	89 95 bc fd ff
	ff		 mov	 DWORD PTR tv2439[ebp], edx
  035a6	b9 04 00 00 00	 mov	 ecx, 4
  035ab	c1 e1 05	 shl	 ecx, 5
  035ae	8b 95 bc fd ff
	ff		 mov	 edx, DWORD PTR tv2439[ebp]
  035b4	89 94 0d e4 fe
	ff ff		 mov	 DWORD PTR _W$[ebp+ecx], edx
  035bb	8b 85 9c fe ff
	ff		 mov	 eax, DWORD PTR _F$[ebp]
  035c1	33 85 90 fe ff
	ff		 xor	 eax, DWORD PTR _G$[ebp]
  035c7	23 85 a8 fe ff
	ff		 and	 eax, DWORD PTR _E$[ebp]
  035cd	33 85 90 fe ff
	ff		 xor	 eax, DWORD PTR _G$[ebp]
  035d3	8b 8d a8 fe ff
	ff		 mov	 ecx, DWORD PTR _E$[ebp]
  035d9	c1 e1 07	 shl	 ecx, 7
  035dc	8b 95 a8 fe ff
	ff		 mov	 edx, DWORD PTR _E$[ebp]
  035e2	c1 ea 19	 shr	 edx, 25			; 00000019H
  035e5	0b d1		 or	 edx, ecx
  035e7	8b 8d a8 fe ff
	ff		 mov	 ecx, DWORD PTR _E$[ebp]
  035ed	c1 e1 15	 shl	 ecx, 21			; 00000015H
  035f0	8b b5 a8 fe ff
	ff		 mov	 esi, DWORD PTR _E$[ebp]
  035f6	c1 ee 0b	 shr	 esi, 11			; 0000000bH
  035f9	0b f1		 or	 esi, ecx
  035fb	8b 8d a8 fe ff
	ff		 mov	 ecx, DWORD PTR _E$[ebp]
  03601	c1 e1 1a	 shl	 ecx, 26			; 0000001aH
  03604	8b bd a8 fe ff
	ff		 mov	 edi, DWORD PTR _E$[ebp]
  0360a	c1 ef 06	 shr	 edi, 6
  0360d	0b f9		 or	 edi, ecx
  0360f	33 fe		 xor	 edi, esi
  03611	33 fa		 xor	 edi, edx
  03613	03 bd 84 fe ff
	ff		 add	 edi, DWORD PTR _H$[ebp]
  03619	03 bd bc fd ff
	ff		 add	 edi, DWORD PTR tv2439[ebp]
  0361f	8d 94 38 85 0a
	b7 27		 lea	 edx, DWORD PTR [eax+edi+666307205]
  03626	89 55 f8	 mov	 DWORD PTR _temp1$[ebp], edx
  03629	8b 85 d8 fe ff
	ff		 mov	 eax, DWORD PTR _A$[ebp]
  0362f	c1 e8 02	 shr	 eax, 2
  03632	8b 8d d8 fe ff
	ff		 mov	 ecx, DWORD PTR _A$[ebp]
  03638	c1 e1 1e	 shl	 ecx, 30			; 0000001eH
  0363b	0b c1		 or	 eax, ecx
  0363d	8b 95 d8 fe ff
	ff		 mov	 edx, DWORD PTR _A$[ebp]
  03643	c1 ea 0d	 shr	 edx, 13			; 0000000dH
  03646	8b 8d d8 fe ff
	ff		 mov	 ecx, DWORD PTR _A$[ebp]
  0364c	c1 e1 13	 shl	 ecx, 19			; 00000013H
  0364f	0b d1		 or	 edx, ecx
  03651	33 c2		 xor	 eax, edx
  03653	8b 95 d8 fe ff
	ff		 mov	 edx, DWORD PTR _A$[ebp]
  03659	c1 ea 16	 shr	 edx, 22			; 00000016H
  0365c	8b 8d d8 fe ff
	ff		 mov	 ecx, DWORD PTR _A$[ebp]
  03662	c1 e1 0a	 shl	 ecx, 10			; 0000000aH
  03665	0b d1		 or	 edx, ecx
  03667	33 c2		 xor	 eax, edx
  03669	8b 95 d8 fe ff
	ff		 mov	 edx, DWORD PTR _A$[ebp]
  0366f	23 95 cc fe ff
	ff		 and	 edx, DWORD PTR _B$[ebp]
  03675	8b 8d d8 fe ff
	ff		 mov	 ecx, DWORD PTR _A$[ebp]
  0367b	0b 8d cc fe ff
	ff		 or	 ecx, DWORD PTR _B$[ebp]
  03681	23 8d c0 fe ff
	ff		 and	 ecx, DWORD PTR _C$[ebp]
  03687	0b d1		 or	 edx, ecx
  03689	03 c2		 add	 eax, edx
  0368b	89 45 ec	 mov	 DWORD PTR _temp2$[ebp], eax
  0368e	8b 85 b4 fe ff
	ff		 mov	 eax, DWORD PTR _D$[ebp]
  03694	03 45 f8	 add	 eax, DWORD PTR _temp1$[ebp]
  03697	89 85 b4 fe ff
	ff		 mov	 DWORD PTR _D$[ebp], eax
  0369d	8b 45 f8	 mov	 eax, DWORD PTR _temp1$[ebp]
  036a0	03 45 ec	 add	 eax, DWORD PTR _temp2$[ebp]
  036a3	89 85 84 fe ff
	ff		 mov	 DWORD PTR _H$[ebp], eax

; 147  :     P( H, A, B, C, D, E, F, G, R(33), 0x2E1B2138 );

  036a9	b8 04 00 00 00	 mov	 eax, 4
  036ae	6b c8 1f	 imul	 ecx, eax, 31
  036b1	8b 94 0d e4 fe
	ff ff		 mov	 edx, DWORD PTR _W$[ebp+ecx]
  036b8	c1 ea 11	 shr	 edx, 17			; 00000011H
  036bb	b8 04 00 00 00	 mov	 eax, 4
  036c0	6b c8 1f	 imul	 ecx, eax, 31
  036c3	8b 84 0d e4 fe
	ff ff		 mov	 eax, DWORD PTR _W$[ebp+ecx]
  036ca	c1 e0 0f	 shl	 eax, 15			; 0000000fH
  036cd	0b d0		 or	 edx, eax
  036cf	b9 04 00 00 00	 mov	 ecx, 4
  036d4	6b c1 1f	 imul	 eax, ecx, 31
  036d7	8b 8c 05 e4 fe
	ff ff		 mov	 ecx, DWORD PTR _W$[ebp+eax]
  036de	c1 e9 13	 shr	 ecx, 19			; 00000013H
  036e1	b8 04 00 00 00	 mov	 eax, 4
  036e6	6b c0 1f	 imul	 eax, eax, 31
  036e9	8b 84 05 e4 fe
	ff ff		 mov	 eax, DWORD PTR _W$[ebp+eax]
  036f0	c1 e0 0d	 shl	 eax, 13			; 0000000dH
  036f3	0b c8		 or	 ecx, eax
  036f5	33 d1		 xor	 edx, ecx
  036f7	b9 04 00 00 00	 mov	 ecx, 4
  036fc	6b c1 1f	 imul	 eax, ecx, 31
  036ff	8b 8c 05 e4 fe
	ff ff		 mov	 ecx, DWORD PTR _W$[ebp+eax]
  03706	c1 e9 0a	 shr	 ecx, 10			; 0000000aH
  03709	33 d1		 xor	 edx, ecx
  0370b	b8 04 00 00 00	 mov	 eax, 4
  03710	6b c8 1a	 imul	 ecx, eax, 26
  03713	03 94 0d e4 fe
	ff ff		 add	 edx, DWORD PTR _W$[ebp+ecx]
  0371a	b8 04 00 00 00	 mov	 eax, 4
  0371f	6b c8 12	 imul	 ecx, eax, 18
  03722	8b 84 0d e4 fe
	ff ff		 mov	 eax, DWORD PTR _W$[ebp+ecx]
  03729	c1 e8 07	 shr	 eax, 7
  0372c	b9 04 00 00 00	 mov	 ecx, 4
  03731	6b c9 12	 imul	 ecx, ecx, 18
  03734	8b 8c 0d e4 fe
	ff ff		 mov	 ecx, DWORD PTR _W$[ebp+ecx]
  0373b	c1 e1 19	 shl	 ecx, 25			; 00000019H
  0373e	0b c1		 or	 eax, ecx
  03740	b9 04 00 00 00	 mov	 ecx, 4
  03745	6b c9 12	 imul	 ecx, ecx, 18
  03748	8b 8c 0d e4 fe
	ff ff		 mov	 ecx, DWORD PTR _W$[ebp+ecx]
  0374f	c1 e9 12	 shr	 ecx, 18			; 00000012H
  03752	be 04 00 00 00	 mov	 esi, 4
  03757	6b f6 12	 imul	 esi, esi, 18
  0375a	8b b4 35 e4 fe
	ff ff		 mov	 esi, DWORD PTR _W$[ebp+esi]
  03761	c1 e6 0e	 shl	 esi, 14			; 0000000eH
  03764	0b ce		 or	 ecx, esi
  03766	33 c1		 xor	 eax, ecx
  03768	b9 04 00 00 00	 mov	 ecx, 4
  0376d	6b c9 12	 imul	 ecx, ecx, 18
  03770	8b 8c 0d e4 fe
	ff ff		 mov	 ecx, DWORD PTR _W$[ebp+ecx]
  03777	c1 e9 03	 shr	 ecx, 3
  0377a	33 c1		 xor	 eax, ecx
  0377c	03 d0		 add	 edx, eax
  0377e	b8 04 00 00 00	 mov	 eax, 4
  03783	6b c8 11	 imul	 ecx, eax, 17
  03786	03 94 0d e4 fe
	ff ff		 add	 edx, DWORD PTR _W$[ebp+ecx]
  0378d	89 95 bc fd ff
	ff		 mov	 DWORD PTR tv2522[ebp], edx
  03793	ba 04 00 00 00	 mov	 edx, 4
  03798	6b c2 21	 imul	 eax, edx, 33
  0379b	8b 8d bc fd ff
	ff		 mov	 ecx, DWORD PTR tv2522[ebp]
  037a1	89 8c 05 e4 fe
	ff ff		 mov	 DWORD PTR _W$[ebp+eax], ecx
  037a8	8b 95 a8 fe ff
	ff		 mov	 edx, DWORD PTR _E$[ebp]
  037ae	33 95 9c fe ff
	ff		 xor	 edx, DWORD PTR _F$[ebp]
  037b4	23 95 b4 fe ff
	ff		 and	 edx, DWORD PTR _D$[ebp]
  037ba	33 95 9c fe ff
	ff		 xor	 edx, DWORD PTR _F$[ebp]
  037c0	8b 85 b4 fe ff
	ff		 mov	 eax, DWORD PTR _D$[ebp]
  037c6	c1 e0 07	 shl	 eax, 7
  037c9	8b 8d b4 fe ff
	ff		 mov	 ecx, DWORD PTR _D$[ebp]
  037cf	c1 e9 19	 shr	 ecx, 25			; 00000019H
  037d2	0b c8		 or	 ecx, eax
  037d4	8b 85 b4 fe ff
	ff		 mov	 eax, DWORD PTR _D$[ebp]
  037da	c1 e0 15	 shl	 eax, 21			; 00000015H
  037dd	8b b5 b4 fe ff
	ff		 mov	 esi, DWORD PTR _D$[ebp]
  037e3	c1 ee 0b	 shr	 esi, 11			; 0000000bH
  037e6	0b f0		 or	 esi, eax
  037e8	8b 85 b4 fe ff
	ff		 mov	 eax, DWORD PTR _D$[ebp]
  037ee	c1 e0 1a	 shl	 eax, 26			; 0000001aH
  037f1	8b bd b4 fe ff
	ff		 mov	 edi, DWORD PTR _D$[ebp]
  037f7	c1 ef 06	 shr	 edi, 6
  037fa	0b f8		 or	 edi, eax
  037fc	33 fe		 xor	 edi, esi
  037fe	33 f9		 xor	 edi, ecx
  03800	03 bd 90 fe ff
	ff		 add	 edi, DWORD PTR _G$[ebp]
  03806	03 bd bc fd ff
	ff		 add	 edi, DWORD PTR tv2522[ebp]
  0380c	8d 8c 3a 38 21
	1b 2e		 lea	 ecx, DWORD PTR [edx+edi+773529912]
  03813	89 4d f8	 mov	 DWORD PTR _temp1$[ebp], ecx
  03816	8b 85 84 fe ff
	ff		 mov	 eax, DWORD PTR _H$[ebp]
  0381c	c1 e8 02	 shr	 eax, 2
  0381f	8b 8d 84 fe ff
	ff		 mov	 ecx, DWORD PTR _H$[ebp]
  03825	c1 e1 1e	 shl	 ecx, 30			; 0000001eH
  03828	0b c1		 or	 eax, ecx
  0382a	8b 95 84 fe ff
	ff		 mov	 edx, DWORD PTR _H$[ebp]
  03830	c1 ea 0d	 shr	 edx, 13			; 0000000dH
  03833	8b 8d 84 fe ff
	ff		 mov	 ecx, DWORD PTR _H$[ebp]
  03839	c1 e1 13	 shl	 ecx, 19			; 00000013H
  0383c	0b d1		 or	 edx, ecx
  0383e	33 c2		 xor	 eax, edx
  03840	8b 95 84 fe ff
	ff		 mov	 edx, DWORD PTR _H$[ebp]
  03846	c1 ea 16	 shr	 edx, 22			; 00000016H
  03849	8b 8d 84 fe ff
	ff		 mov	 ecx, DWORD PTR _H$[ebp]
  0384f	c1 e1 0a	 shl	 ecx, 10			; 0000000aH
  03852	0b d1		 or	 edx, ecx
  03854	33 c2		 xor	 eax, edx
  03856	8b 95 84 fe ff
	ff		 mov	 edx, DWORD PTR _H$[ebp]
  0385c	23 95 d8 fe ff
	ff		 and	 edx, DWORD PTR _A$[ebp]
  03862	8b 8d 84 fe ff
	ff		 mov	 ecx, DWORD PTR _H$[ebp]
  03868	0b 8d d8 fe ff
	ff		 or	 ecx, DWORD PTR _A$[ebp]
  0386e	23 8d cc fe ff
	ff		 and	 ecx, DWORD PTR _B$[ebp]
  03874	0b d1		 or	 edx, ecx
  03876	03 c2		 add	 eax, edx
  03878	89 45 ec	 mov	 DWORD PTR _temp2$[ebp], eax
  0387b	8b 85 c0 fe ff
	ff		 mov	 eax, DWORD PTR _C$[ebp]
  03881	03 45 f8	 add	 eax, DWORD PTR _temp1$[ebp]
  03884	89 85 c0 fe ff
	ff		 mov	 DWORD PTR _C$[ebp], eax
  0388a	8b 45 f8	 mov	 eax, DWORD PTR _temp1$[ebp]
  0388d	03 45 ec	 add	 eax, DWORD PTR _temp2$[ebp]
  03890	89 85 90 fe ff
	ff		 mov	 DWORD PTR _G$[ebp], eax

; 148  :     P( G, H, A, B, C, D, E, F, R(34), 0x4D2C6DFC );

  03896	b8 04 00 00 00	 mov	 eax, 4
  0389b	c1 e0 05	 shl	 eax, 5
  0389e	8b 8c 05 e4 fe
	ff ff		 mov	 ecx, DWORD PTR _W$[ebp+eax]
  038a5	c1 e9 11	 shr	 ecx, 17			; 00000011H
  038a8	ba 04 00 00 00	 mov	 edx, 4
  038ad	c1 e2 05	 shl	 edx, 5
  038b0	8b 84 15 e4 fe
	ff ff		 mov	 eax, DWORD PTR _W$[ebp+edx]
  038b7	c1 e0 0f	 shl	 eax, 15			; 0000000fH
  038ba	0b c8		 or	 ecx, eax
  038bc	ba 04 00 00 00	 mov	 edx, 4
  038c1	c1 e2 05	 shl	 edx, 5
  038c4	8b 84 15 e4 fe
	ff ff		 mov	 eax, DWORD PTR _W$[ebp+edx]
  038cb	c1 e8 13	 shr	 eax, 19			; 00000013H
  038ce	ba 04 00 00 00	 mov	 edx, 4
  038d3	c1 e2 05	 shl	 edx, 5
  038d6	8b 94 15 e4 fe
	ff ff		 mov	 edx, DWORD PTR _W$[ebp+edx]
  038dd	c1 e2 0d	 shl	 edx, 13			; 0000000dH
  038e0	0b c2		 or	 eax, edx
  038e2	33 c8		 xor	 ecx, eax
  038e4	b8 04 00 00 00	 mov	 eax, 4
  038e9	c1 e0 05	 shl	 eax, 5
  038ec	8b 94 05 e4 fe
	ff ff		 mov	 edx, DWORD PTR _W$[ebp+eax]
  038f3	c1 ea 0a	 shr	 edx, 10			; 0000000aH
  038f6	33 ca		 xor	 ecx, edx
  038f8	b8 04 00 00 00	 mov	 eax, 4
  038fd	6b d0 1b	 imul	 edx, eax, 27
  03900	03 8c 15 e4 fe
	ff ff		 add	 ecx, DWORD PTR _W$[ebp+edx]
  03907	b8 04 00 00 00	 mov	 eax, 4
  0390c	6b d0 13	 imul	 edx, eax, 19
  0390f	8b 84 15 e4 fe
	ff ff		 mov	 eax, DWORD PTR _W$[ebp+edx]
  03916	c1 e8 07	 shr	 eax, 7
  03919	ba 04 00 00 00	 mov	 edx, 4
  0391e	6b d2 13	 imul	 edx, edx, 19
  03921	8b 94 15 e4 fe
	ff ff		 mov	 edx, DWORD PTR _W$[ebp+edx]
  03928	c1 e2 19	 shl	 edx, 25			; 00000019H
  0392b	0b c2		 or	 eax, edx
  0392d	ba 04 00 00 00	 mov	 edx, 4
  03932	6b d2 13	 imul	 edx, edx, 19
  03935	8b 94 15 e4 fe
	ff ff		 mov	 edx, DWORD PTR _W$[ebp+edx]
  0393c	c1 ea 12	 shr	 edx, 18			; 00000012H
  0393f	be 04 00 00 00	 mov	 esi, 4
  03944	6b f6 13	 imul	 esi, esi, 19
  03947	8b b4 35 e4 fe
	ff ff		 mov	 esi, DWORD PTR _W$[ebp+esi]
  0394e	c1 e6 0e	 shl	 esi, 14			; 0000000eH
  03951	0b d6		 or	 edx, esi
  03953	33 c2		 xor	 eax, edx
  03955	ba 04 00 00 00	 mov	 edx, 4
  0395a	6b d2 13	 imul	 edx, edx, 19
  0395d	8b 94 15 e4 fe
	ff ff		 mov	 edx, DWORD PTR _W$[ebp+edx]
  03964	c1 ea 03	 shr	 edx, 3
  03967	33 c2		 xor	 eax, edx
  03969	03 c8		 add	 ecx, eax
  0396b	b8 04 00 00 00	 mov	 eax, 4
  03970	6b d0 12	 imul	 edx, eax, 18
  03973	03 8c 15 e4 fe
	ff ff		 add	 ecx, DWORD PTR _W$[ebp+edx]
  0397a	89 8d bc fd ff
	ff		 mov	 DWORD PTR tv2605[ebp], ecx
  03980	b8 04 00 00 00	 mov	 eax, 4
  03985	6b c8 22	 imul	 ecx, eax, 34
  03988	8b 95 bc fd ff
	ff		 mov	 edx, DWORD PTR tv2605[ebp]
  0398e	89 94 0d e4 fe
	ff ff		 mov	 DWORD PTR _W$[ebp+ecx], edx
  03995	8b 85 b4 fe ff
	ff		 mov	 eax, DWORD PTR _D$[ebp]
  0399b	33 85 a8 fe ff
	ff		 xor	 eax, DWORD PTR _E$[ebp]
  039a1	23 85 c0 fe ff
	ff		 and	 eax, DWORD PTR _C$[ebp]
  039a7	33 85 a8 fe ff
	ff		 xor	 eax, DWORD PTR _E$[ebp]
  039ad	8b 8d c0 fe ff
	ff		 mov	 ecx, DWORD PTR _C$[ebp]
  039b3	c1 e1 07	 shl	 ecx, 7
  039b6	8b 95 c0 fe ff
	ff		 mov	 edx, DWORD PTR _C$[ebp]
  039bc	c1 ea 19	 shr	 edx, 25			; 00000019H
  039bf	0b d1		 or	 edx, ecx
  039c1	8b 8d c0 fe ff
	ff		 mov	 ecx, DWORD PTR _C$[ebp]
  039c7	c1 e1 15	 shl	 ecx, 21			; 00000015H
  039ca	8b b5 c0 fe ff
	ff		 mov	 esi, DWORD PTR _C$[ebp]
  039d0	c1 ee 0b	 shr	 esi, 11			; 0000000bH
  039d3	0b f1		 or	 esi, ecx
  039d5	8b 8d c0 fe ff
	ff		 mov	 ecx, DWORD PTR _C$[ebp]
  039db	c1 e1 1a	 shl	 ecx, 26			; 0000001aH
  039de	8b bd c0 fe ff
	ff		 mov	 edi, DWORD PTR _C$[ebp]
  039e4	c1 ef 06	 shr	 edi, 6
  039e7	0b f9		 or	 edi, ecx
  039e9	33 fe		 xor	 edi, esi
  039eb	33 fa		 xor	 edi, edx
  039ed	03 bd 9c fe ff
	ff		 add	 edi, DWORD PTR _F$[ebp]
  039f3	03 bd bc fd ff
	ff		 add	 edi, DWORD PTR tv2605[ebp]
  039f9	8d 94 38 fc 6d
	2c 4d		 lea	 edx, DWORD PTR [eax+edi+1294757372]
  03a00	89 55 f8	 mov	 DWORD PTR _temp1$[ebp], edx
  03a03	8b 85 90 fe ff
	ff		 mov	 eax, DWORD PTR _G$[ebp]
  03a09	c1 e8 02	 shr	 eax, 2
  03a0c	8b 8d 90 fe ff
	ff		 mov	 ecx, DWORD PTR _G$[ebp]
  03a12	c1 e1 1e	 shl	 ecx, 30			; 0000001eH
  03a15	0b c1		 or	 eax, ecx
  03a17	8b 95 90 fe ff
	ff		 mov	 edx, DWORD PTR _G$[ebp]
  03a1d	c1 ea 0d	 shr	 edx, 13			; 0000000dH
  03a20	8b 8d 90 fe ff
	ff		 mov	 ecx, DWORD PTR _G$[ebp]
  03a26	c1 e1 13	 shl	 ecx, 19			; 00000013H
  03a29	0b d1		 or	 edx, ecx
  03a2b	33 c2		 xor	 eax, edx
  03a2d	8b 95 90 fe ff
	ff		 mov	 edx, DWORD PTR _G$[ebp]
  03a33	c1 ea 16	 shr	 edx, 22			; 00000016H
  03a36	8b 8d 90 fe ff
	ff		 mov	 ecx, DWORD PTR _G$[ebp]
  03a3c	c1 e1 0a	 shl	 ecx, 10			; 0000000aH
  03a3f	0b d1		 or	 edx, ecx
  03a41	33 c2		 xor	 eax, edx
  03a43	8b 95 90 fe ff
	ff		 mov	 edx, DWORD PTR _G$[ebp]
  03a49	23 95 84 fe ff
	ff		 and	 edx, DWORD PTR _H$[ebp]
  03a4f	8b 8d 90 fe ff
	ff		 mov	 ecx, DWORD PTR _G$[ebp]
  03a55	0b 8d 84 fe ff
	ff		 or	 ecx, DWORD PTR _H$[ebp]
  03a5b	23 8d d8 fe ff
	ff		 and	 ecx, DWORD PTR _A$[ebp]
  03a61	0b d1		 or	 edx, ecx
  03a63	03 c2		 add	 eax, edx
  03a65	89 45 ec	 mov	 DWORD PTR _temp2$[ebp], eax
  03a68	8b 85 cc fe ff
	ff		 mov	 eax, DWORD PTR _B$[ebp]
  03a6e	03 45 f8	 add	 eax, DWORD PTR _temp1$[ebp]
  03a71	89 85 cc fe ff
	ff		 mov	 DWORD PTR _B$[ebp], eax
  03a77	8b 45 f8	 mov	 eax, DWORD PTR _temp1$[ebp]
  03a7a	03 45 ec	 add	 eax, DWORD PTR _temp2$[ebp]
  03a7d	89 85 9c fe ff
	ff		 mov	 DWORD PTR _F$[ebp], eax

; 149  :     P( F, G, H, A, B, C, D, E, R(35), 0x53380D13 );

  03a83	b8 04 00 00 00	 mov	 eax, 4
  03a88	6b c8 21	 imul	 ecx, eax, 33
  03a8b	8b 94 0d e4 fe
	ff ff		 mov	 edx, DWORD PTR _W$[ebp+ecx]
  03a92	c1 ea 11	 shr	 edx, 17			; 00000011H
  03a95	b8 04 00 00 00	 mov	 eax, 4
  03a9a	6b c8 21	 imul	 ecx, eax, 33
  03a9d	8b 84 0d e4 fe
	ff ff		 mov	 eax, DWORD PTR _W$[ebp+ecx]
  03aa4	c1 e0 0f	 shl	 eax, 15			; 0000000fH
  03aa7	0b d0		 or	 edx, eax
  03aa9	b9 04 00 00 00	 mov	 ecx, 4
  03aae	6b c1 21	 imul	 eax, ecx, 33
  03ab1	8b 8c 05 e4 fe
	ff ff		 mov	 ecx, DWORD PTR _W$[ebp+eax]
  03ab8	c1 e9 13	 shr	 ecx, 19			; 00000013H
  03abb	b8 04 00 00 00	 mov	 eax, 4
  03ac0	6b c0 21	 imul	 eax, eax, 33
  03ac3	8b 84 05 e4 fe
	ff ff		 mov	 eax, DWORD PTR _W$[ebp+eax]
  03aca	c1 e0 0d	 shl	 eax, 13			; 0000000dH
  03acd	0b c8		 or	 ecx, eax
  03acf	33 d1		 xor	 edx, ecx
  03ad1	b9 04 00 00 00	 mov	 ecx, 4
  03ad6	6b c1 21	 imul	 eax, ecx, 33
  03ad9	8b 8c 05 e4 fe
	ff ff		 mov	 ecx, DWORD PTR _W$[ebp+eax]
  03ae0	c1 e9 0a	 shr	 ecx, 10			; 0000000aH
  03ae3	33 d1		 xor	 edx, ecx
  03ae5	b8 04 00 00 00	 mov	 eax, 4
  03aea	6b c8 1c	 imul	 ecx, eax, 28
  03aed	03 94 0d e4 fe
	ff ff		 add	 edx, DWORD PTR _W$[ebp+ecx]
  03af4	b8 04 00 00 00	 mov	 eax, 4
  03af9	6b c8 14	 imul	 ecx, eax, 20
  03afc	8b 84 0d e4 fe
	ff ff		 mov	 eax, DWORD PTR _W$[ebp+ecx]
  03b03	c1 e8 07	 shr	 eax, 7
  03b06	b9 04 00 00 00	 mov	 ecx, 4
  03b0b	6b c9 14	 imul	 ecx, ecx, 20
  03b0e	8b 8c 0d e4 fe
	ff ff		 mov	 ecx, DWORD PTR _W$[ebp+ecx]
  03b15	c1 e1 19	 shl	 ecx, 25			; 00000019H
  03b18	0b c1		 or	 eax, ecx
  03b1a	b9 04 00 00 00	 mov	 ecx, 4
  03b1f	6b c9 14	 imul	 ecx, ecx, 20
  03b22	8b 8c 0d e4 fe
	ff ff		 mov	 ecx, DWORD PTR _W$[ebp+ecx]
  03b29	c1 e9 12	 shr	 ecx, 18			; 00000012H
  03b2c	be 04 00 00 00	 mov	 esi, 4
  03b31	6b f6 14	 imul	 esi, esi, 20
  03b34	8b b4 35 e4 fe
	ff ff		 mov	 esi, DWORD PTR _W$[ebp+esi]
  03b3b	c1 e6 0e	 shl	 esi, 14			; 0000000eH
  03b3e	0b ce		 or	 ecx, esi
  03b40	33 c1		 xor	 eax, ecx
  03b42	b9 04 00 00 00	 mov	 ecx, 4
  03b47	6b c9 14	 imul	 ecx, ecx, 20
  03b4a	8b 8c 0d e4 fe
	ff ff		 mov	 ecx, DWORD PTR _W$[ebp+ecx]
  03b51	c1 e9 03	 shr	 ecx, 3
  03b54	33 c1		 xor	 eax, ecx
  03b56	03 d0		 add	 edx, eax
  03b58	b8 04 00 00 00	 mov	 eax, 4
  03b5d	6b c8 13	 imul	 ecx, eax, 19
  03b60	03 94 0d e4 fe
	ff ff		 add	 edx, DWORD PTR _W$[ebp+ecx]
  03b67	89 95 bc fd ff
	ff		 mov	 DWORD PTR tv2688[ebp], edx
  03b6d	ba 04 00 00 00	 mov	 edx, 4
  03b72	6b c2 23	 imul	 eax, edx, 35
  03b75	8b 8d bc fd ff
	ff		 mov	 ecx, DWORD PTR tv2688[ebp]
  03b7b	89 8c 05 e4 fe
	ff ff		 mov	 DWORD PTR _W$[ebp+eax], ecx
  03b82	8b 95 c0 fe ff
	ff		 mov	 edx, DWORD PTR _C$[ebp]
  03b88	33 95 b4 fe ff
	ff		 xor	 edx, DWORD PTR _D$[ebp]
  03b8e	23 95 cc fe ff
	ff		 and	 edx, DWORD PTR _B$[ebp]
  03b94	33 95 b4 fe ff
	ff		 xor	 edx, DWORD PTR _D$[ebp]
  03b9a	8b 85 cc fe ff
	ff		 mov	 eax, DWORD PTR _B$[ebp]
  03ba0	c1 e0 07	 shl	 eax, 7
  03ba3	8b 8d cc fe ff
	ff		 mov	 ecx, DWORD PTR _B$[ebp]
  03ba9	c1 e9 19	 shr	 ecx, 25			; 00000019H
  03bac	0b c8		 or	 ecx, eax
  03bae	8b 85 cc fe ff
	ff		 mov	 eax, DWORD PTR _B$[ebp]
  03bb4	c1 e0 15	 shl	 eax, 21			; 00000015H
  03bb7	8b b5 cc fe ff
	ff		 mov	 esi, DWORD PTR _B$[ebp]
  03bbd	c1 ee 0b	 shr	 esi, 11			; 0000000bH
  03bc0	0b f0		 or	 esi, eax
  03bc2	8b 85 cc fe ff
	ff		 mov	 eax, DWORD PTR _B$[ebp]
  03bc8	c1 e0 1a	 shl	 eax, 26			; 0000001aH
  03bcb	8b bd cc fe ff
	ff		 mov	 edi, DWORD PTR _B$[ebp]
  03bd1	c1 ef 06	 shr	 edi, 6
  03bd4	0b f8		 or	 edi, eax
  03bd6	33 fe		 xor	 edi, esi
  03bd8	33 f9		 xor	 edi, ecx
  03bda	03 bd a8 fe ff
	ff		 add	 edi, DWORD PTR _E$[ebp]
  03be0	03 bd bc fd ff
	ff		 add	 edi, DWORD PTR tv2688[ebp]
  03be6	8d 8c 3a 13 0d
	38 53		 lea	 ecx, DWORD PTR [edx+edi+1396182291]
  03bed	89 4d f8	 mov	 DWORD PTR _temp1$[ebp], ecx
  03bf0	8b 85 9c fe ff
	ff		 mov	 eax, DWORD PTR _F$[ebp]
  03bf6	c1 e8 02	 shr	 eax, 2
  03bf9	8b 8d 9c fe ff
	ff		 mov	 ecx, DWORD PTR _F$[ebp]
  03bff	c1 e1 1e	 shl	 ecx, 30			; 0000001eH
  03c02	0b c1		 or	 eax, ecx
  03c04	8b 95 9c fe ff
	ff		 mov	 edx, DWORD PTR _F$[ebp]
  03c0a	c1 ea 0d	 shr	 edx, 13			; 0000000dH
  03c0d	8b 8d 9c fe ff
	ff		 mov	 ecx, DWORD PTR _F$[ebp]
  03c13	c1 e1 13	 shl	 ecx, 19			; 00000013H
  03c16	0b d1		 or	 edx, ecx
  03c18	33 c2		 xor	 eax, edx
  03c1a	8b 95 9c fe ff
	ff		 mov	 edx, DWORD PTR _F$[ebp]
  03c20	c1 ea 16	 shr	 edx, 22			; 00000016H
  03c23	8b 8d 9c fe ff
	ff		 mov	 ecx, DWORD PTR _F$[ebp]
  03c29	c1 e1 0a	 shl	 ecx, 10			; 0000000aH
  03c2c	0b d1		 or	 edx, ecx
  03c2e	33 c2		 xor	 eax, edx
  03c30	8b 95 9c fe ff
	ff		 mov	 edx, DWORD PTR _F$[ebp]
  03c36	23 95 90 fe ff
	ff		 and	 edx, DWORD PTR _G$[ebp]
  03c3c	8b 8d 9c fe ff
	ff		 mov	 ecx, DWORD PTR _F$[ebp]
  03c42	0b 8d 90 fe ff
	ff		 or	 ecx, DWORD PTR _G$[ebp]
  03c48	23 8d 84 fe ff
	ff		 and	 ecx, DWORD PTR _H$[ebp]
  03c4e	0b d1		 or	 edx, ecx
  03c50	03 c2		 add	 eax, edx
  03c52	89 45 ec	 mov	 DWORD PTR _temp2$[ebp], eax
  03c55	8b 85 d8 fe ff
	ff		 mov	 eax, DWORD PTR _A$[ebp]
  03c5b	03 45 f8	 add	 eax, DWORD PTR _temp1$[ebp]
  03c5e	89 85 d8 fe ff
	ff		 mov	 DWORD PTR _A$[ebp], eax
  03c64	8b 45 f8	 mov	 eax, DWORD PTR _temp1$[ebp]
  03c67	03 45 ec	 add	 eax, DWORD PTR _temp2$[ebp]
  03c6a	89 85 a8 fe ff
	ff		 mov	 DWORD PTR _E$[ebp], eax

; 150  :     P( E, F, G, H, A, B, C, D, R(36), 0x650A7354 );

  03c70	b8 04 00 00 00	 mov	 eax, 4
  03c75	6b c8 22	 imul	 ecx, eax, 34
  03c78	8b 94 0d e4 fe
	ff ff		 mov	 edx, DWORD PTR _W$[ebp+ecx]
  03c7f	c1 ea 11	 shr	 edx, 17			; 00000011H
  03c82	b8 04 00 00 00	 mov	 eax, 4
  03c87	6b c8 22	 imul	 ecx, eax, 34
  03c8a	8b 84 0d e4 fe
	ff ff		 mov	 eax, DWORD PTR _W$[ebp+ecx]
  03c91	c1 e0 0f	 shl	 eax, 15			; 0000000fH
  03c94	0b d0		 or	 edx, eax
  03c96	b9 04 00 00 00	 mov	 ecx, 4
  03c9b	6b c1 22	 imul	 eax, ecx, 34
  03c9e	8b 8c 05 e4 fe
	ff ff		 mov	 ecx, DWORD PTR _W$[ebp+eax]
  03ca5	c1 e9 13	 shr	 ecx, 19			; 00000013H
  03ca8	b8 04 00 00 00	 mov	 eax, 4
  03cad	6b c0 22	 imul	 eax, eax, 34
  03cb0	8b 84 05 e4 fe
	ff ff		 mov	 eax, DWORD PTR _W$[ebp+eax]
  03cb7	c1 e0 0d	 shl	 eax, 13			; 0000000dH
  03cba	0b c8		 or	 ecx, eax
  03cbc	33 d1		 xor	 edx, ecx
  03cbe	b9 04 00 00 00	 mov	 ecx, 4
  03cc3	6b c1 22	 imul	 eax, ecx, 34
  03cc6	8b 8c 05 e4 fe
	ff ff		 mov	 ecx, DWORD PTR _W$[ebp+eax]
  03ccd	c1 e9 0a	 shr	 ecx, 10			; 0000000aH
  03cd0	33 d1		 xor	 edx, ecx
  03cd2	b8 04 00 00 00	 mov	 eax, 4
  03cd7	6b c8 1d	 imul	 ecx, eax, 29
  03cda	03 94 0d e4 fe
	ff ff		 add	 edx, DWORD PTR _W$[ebp+ecx]
  03ce1	b8 04 00 00 00	 mov	 eax, 4
  03ce6	6b c8 15	 imul	 ecx, eax, 21
  03ce9	8b 84 0d e4 fe
	ff ff		 mov	 eax, DWORD PTR _W$[ebp+ecx]
  03cf0	c1 e8 07	 shr	 eax, 7
  03cf3	b9 04 00 00 00	 mov	 ecx, 4
  03cf8	6b c9 15	 imul	 ecx, ecx, 21
  03cfb	8b 8c 0d e4 fe
	ff ff		 mov	 ecx, DWORD PTR _W$[ebp+ecx]
  03d02	c1 e1 19	 shl	 ecx, 25			; 00000019H
  03d05	0b c1		 or	 eax, ecx
  03d07	b9 04 00 00 00	 mov	 ecx, 4
  03d0c	6b c9 15	 imul	 ecx, ecx, 21
  03d0f	8b 8c 0d e4 fe
	ff ff		 mov	 ecx, DWORD PTR _W$[ebp+ecx]
  03d16	c1 e9 12	 shr	 ecx, 18			; 00000012H
  03d19	be 04 00 00 00	 mov	 esi, 4
  03d1e	6b f6 15	 imul	 esi, esi, 21
  03d21	8b b4 35 e4 fe
	ff ff		 mov	 esi, DWORD PTR _W$[ebp+esi]
  03d28	c1 e6 0e	 shl	 esi, 14			; 0000000eH
  03d2b	0b ce		 or	 ecx, esi
  03d2d	33 c1		 xor	 eax, ecx
  03d2f	b9 04 00 00 00	 mov	 ecx, 4
  03d34	6b c9 15	 imul	 ecx, ecx, 21
  03d37	8b 8c 0d e4 fe
	ff ff		 mov	 ecx, DWORD PTR _W$[ebp+ecx]
  03d3e	c1 e9 03	 shr	 ecx, 3
  03d41	33 c1		 xor	 eax, ecx
  03d43	03 d0		 add	 edx, eax
  03d45	b8 04 00 00 00	 mov	 eax, 4
  03d4a	6b c8 14	 imul	 ecx, eax, 20
  03d4d	03 94 0d e4 fe
	ff ff		 add	 edx, DWORD PTR _W$[ebp+ecx]
  03d54	89 95 bc fd ff
	ff		 mov	 DWORD PTR tv2771[ebp], edx
  03d5a	ba 04 00 00 00	 mov	 edx, 4
  03d5f	6b c2 24	 imul	 eax, edx, 36
  03d62	8b 8d bc fd ff
	ff		 mov	 ecx, DWORD PTR tv2771[ebp]
  03d68	89 8c 05 e4 fe
	ff ff		 mov	 DWORD PTR _W$[ebp+eax], ecx
  03d6f	8b 95 cc fe ff
	ff		 mov	 edx, DWORD PTR _B$[ebp]
  03d75	33 95 c0 fe ff
	ff		 xor	 edx, DWORD PTR _C$[ebp]
  03d7b	23 95 d8 fe ff
	ff		 and	 edx, DWORD PTR _A$[ebp]
  03d81	33 95 c0 fe ff
	ff		 xor	 edx, DWORD PTR _C$[ebp]
  03d87	8b 85 d8 fe ff
	ff		 mov	 eax, DWORD PTR _A$[ebp]
  03d8d	c1 e0 07	 shl	 eax, 7
  03d90	8b 8d d8 fe ff
	ff		 mov	 ecx, DWORD PTR _A$[ebp]
  03d96	c1 e9 19	 shr	 ecx, 25			; 00000019H
  03d99	0b c8		 or	 ecx, eax
  03d9b	8b 85 d8 fe ff
	ff		 mov	 eax, DWORD PTR _A$[ebp]
  03da1	c1 e0 15	 shl	 eax, 21			; 00000015H
  03da4	8b b5 d8 fe ff
	ff		 mov	 esi, DWORD PTR _A$[ebp]
  03daa	c1 ee 0b	 shr	 esi, 11			; 0000000bH
  03dad	0b f0		 or	 esi, eax
  03daf	8b 85 d8 fe ff
	ff		 mov	 eax, DWORD PTR _A$[ebp]
  03db5	c1 e0 1a	 shl	 eax, 26			; 0000001aH
  03db8	8b bd d8 fe ff
	ff		 mov	 edi, DWORD PTR _A$[ebp]
  03dbe	c1 ef 06	 shr	 edi, 6
  03dc1	0b f8		 or	 edi, eax
  03dc3	33 fe		 xor	 edi, esi
  03dc5	33 f9		 xor	 edi, ecx
  03dc7	03 bd b4 fe ff
	ff		 add	 edi, DWORD PTR _D$[ebp]
  03dcd	03 bd bc fd ff
	ff		 add	 edi, DWORD PTR tv2771[ebp]
  03dd3	8d 8c 3a 54 73
	0a 65		 lea	 ecx, DWORD PTR [edx+edi+1695183700]
  03dda	89 4d f8	 mov	 DWORD PTR _temp1$[ebp], ecx
  03ddd	8b 85 a8 fe ff
	ff		 mov	 eax, DWORD PTR _E$[ebp]
  03de3	c1 e8 02	 shr	 eax, 2
  03de6	8b 8d a8 fe ff
	ff		 mov	 ecx, DWORD PTR _E$[ebp]
  03dec	c1 e1 1e	 shl	 ecx, 30			; 0000001eH
  03def	0b c1		 or	 eax, ecx
  03df1	8b 95 a8 fe ff
	ff		 mov	 edx, DWORD PTR _E$[ebp]
  03df7	c1 ea 0d	 shr	 edx, 13			; 0000000dH
  03dfa	8b 8d a8 fe ff
	ff		 mov	 ecx, DWORD PTR _E$[ebp]
  03e00	c1 e1 13	 shl	 ecx, 19			; 00000013H
  03e03	0b d1		 or	 edx, ecx
  03e05	33 c2		 xor	 eax, edx
  03e07	8b 95 a8 fe ff
	ff		 mov	 edx, DWORD PTR _E$[ebp]
  03e0d	c1 ea 16	 shr	 edx, 22			; 00000016H
  03e10	8b 8d a8 fe ff
	ff		 mov	 ecx, DWORD PTR _E$[ebp]
  03e16	c1 e1 0a	 shl	 ecx, 10			; 0000000aH
  03e19	0b d1		 or	 edx, ecx
  03e1b	33 c2		 xor	 eax, edx
  03e1d	8b 95 a8 fe ff
	ff		 mov	 edx, DWORD PTR _E$[ebp]
  03e23	23 95 9c fe ff
	ff		 and	 edx, DWORD PTR _F$[ebp]
  03e29	8b 8d a8 fe ff
	ff		 mov	 ecx, DWORD PTR _E$[ebp]
  03e2f	0b 8d 9c fe ff
	ff		 or	 ecx, DWORD PTR _F$[ebp]
  03e35	23 8d 90 fe ff
	ff		 and	 ecx, DWORD PTR _G$[ebp]
  03e3b	0b d1		 or	 edx, ecx
  03e3d	03 c2		 add	 eax, edx
  03e3f	89 45 ec	 mov	 DWORD PTR _temp2$[ebp], eax
  03e42	8b 85 84 fe ff
	ff		 mov	 eax, DWORD PTR _H$[ebp]
  03e48	03 45 f8	 add	 eax, DWORD PTR _temp1$[ebp]
  03e4b	89 85 84 fe ff
	ff		 mov	 DWORD PTR _H$[ebp], eax
  03e51	8b 45 f8	 mov	 eax, DWORD PTR _temp1$[ebp]
  03e54	03 45 ec	 add	 eax, DWORD PTR _temp2$[ebp]
  03e57	89 85 b4 fe ff
	ff		 mov	 DWORD PTR _D$[ebp], eax

; 151  :     P( D, E, F, G, H, A, B, C, R(37), 0x766A0ABB );

  03e5d	b8 04 00 00 00	 mov	 eax, 4
  03e62	6b c8 23	 imul	 ecx, eax, 35
  03e65	8b 94 0d e4 fe
	ff ff		 mov	 edx, DWORD PTR _W$[ebp+ecx]
  03e6c	c1 ea 11	 shr	 edx, 17			; 00000011H
  03e6f	b8 04 00 00 00	 mov	 eax, 4
  03e74	6b c8 23	 imul	 ecx, eax, 35
  03e77	8b 84 0d e4 fe
	ff ff		 mov	 eax, DWORD PTR _W$[ebp+ecx]
  03e7e	c1 e0 0f	 shl	 eax, 15			; 0000000fH
  03e81	0b d0		 or	 edx, eax
  03e83	b9 04 00 00 00	 mov	 ecx, 4
  03e88	6b c1 23	 imul	 eax, ecx, 35
  03e8b	8b 8c 05 e4 fe
	ff ff		 mov	 ecx, DWORD PTR _W$[ebp+eax]
  03e92	c1 e9 13	 shr	 ecx, 19			; 00000013H
  03e95	b8 04 00 00 00	 mov	 eax, 4
  03e9a	6b c0 23	 imul	 eax, eax, 35
  03e9d	8b 84 05 e4 fe
	ff ff		 mov	 eax, DWORD PTR _W$[ebp+eax]
  03ea4	c1 e0 0d	 shl	 eax, 13			; 0000000dH
  03ea7	0b c8		 or	 ecx, eax
  03ea9	33 d1		 xor	 edx, ecx
  03eab	b9 04 00 00 00	 mov	 ecx, 4
  03eb0	6b c1 23	 imul	 eax, ecx, 35
  03eb3	8b 8c 05 e4 fe
	ff ff		 mov	 ecx, DWORD PTR _W$[ebp+eax]
  03eba	c1 e9 0a	 shr	 ecx, 10			; 0000000aH
  03ebd	33 d1		 xor	 edx, ecx
  03ebf	b8 04 00 00 00	 mov	 eax, 4
  03ec4	6b c8 1e	 imul	 ecx, eax, 30
  03ec7	03 94 0d e4 fe
	ff ff		 add	 edx, DWORD PTR _W$[ebp+ecx]
  03ece	b8 04 00 00 00	 mov	 eax, 4
  03ed3	6b c8 16	 imul	 ecx, eax, 22
  03ed6	8b 84 0d e4 fe
	ff ff		 mov	 eax, DWORD PTR _W$[ebp+ecx]
  03edd	c1 e8 07	 shr	 eax, 7
  03ee0	b9 04 00 00 00	 mov	 ecx, 4
  03ee5	6b c9 16	 imul	 ecx, ecx, 22
  03ee8	8b 8c 0d e4 fe
	ff ff		 mov	 ecx, DWORD PTR _W$[ebp+ecx]
  03eef	c1 e1 19	 shl	 ecx, 25			; 00000019H
  03ef2	0b c1		 or	 eax, ecx
  03ef4	b9 04 00 00 00	 mov	 ecx, 4
  03ef9	6b c9 16	 imul	 ecx, ecx, 22
  03efc	8b 8c 0d e4 fe
	ff ff		 mov	 ecx, DWORD PTR _W$[ebp+ecx]
  03f03	c1 e9 12	 shr	 ecx, 18			; 00000012H
  03f06	be 04 00 00 00	 mov	 esi, 4
  03f0b	6b f6 16	 imul	 esi, esi, 22
  03f0e	8b b4 35 e4 fe
	ff ff		 mov	 esi, DWORD PTR _W$[ebp+esi]
  03f15	c1 e6 0e	 shl	 esi, 14			; 0000000eH
  03f18	0b ce		 or	 ecx, esi
  03f1a	33 c1		 xor	 eax, ecx
  03f1c	b9 04 00 00 00	 mov	 ecx, 4
  03f21	6b c9 16	 imul	 ecx, ecx, 22
  03f24	8b 8c 0d e4 fe
	ff ff		 mov	 ecx, DWORD PTR _W$[ebp+ecx]
  03f2b	c1 e9 03	 shr	 ecx, 3
  03f2e	33 c1		 xor	 eax, ecx
  03f30	03 d0		 add	 edx, eax
  03f32	b8 04 00 00 00	 mov	 eax, 4
  03f37	6b c8 15	 imul	 ecx, eax, 21
  03f3a	03 94 0d e4 fe
	ff ff		 add	 edx, DWORD PTR _W$[ebp+ecx]
  03f41	89 95 bc fd ff
	ff		 mov	 DWORD PTR tv2854[ebp], edx
  03f47	ba 04 00 00 00	 mov	 edx, 4
  03f4c	6b c2 25	 imul	 eax, edx, 37
  03f4f	8b 8d bc fd ff
	ff		 mov	 ecx, DWORD PTR tv2854[ebp]
  03f55	89 8c 05 e4 fe
	ff ff		 mov	 DWORD PTR _W$[ebp+eax], ecx
  03f5c	8b 95 d8 fe ff
	ff		 mov	 edx, DWORD PTR _A$[ebp]
  03f62	33 95 cc fe ff
	ff		 xor	 edx, DWORD PTR _B$[ebp]
  03f68	23 95 84 fe ff
	ff		 and	 edx, DWORD PTR _H$[ebp]
  03f6e	33 95 cc fe ff
	ff		 xor	 edx, DWORD PTR _B$[ebp]
  03f74	8b 85 84 fe ff
	ff		 mov	 eax, DWORD PTR _H$[ebp]
  03f7a	c1 e0 07	 shl	 eax, 7
  03f7d	8b 8d 84 fe ff
	ff		 mov	 ecx, DWORD PTR _H$[ebp]
  03f83	c1 e9 19	 shr	 ecx, 25			; 00000019H
  03f86	0b c8		 or	 ecx, eax
  03f88	8b 85 84 fe ff
	ff		 mov	 eax, DWORD PTR _H$[ebp]
  03f8e	c1 e0 15	 shl	 eax, 21			; 00000015H
  03f91	8b b5 84 fe ff
	ff		 mov	 esi, DWORD PTR _H$[ebp]
  03f97	c1 ee 0b	 shr	 esi, 11			; 0000000bH
  03f9a	0b f0		 or	 esi, eax
  03f9c	8b 85 84 fe ff
	ff		 mov	 eax, DWORD PTR _H$[ebp]
  03fa2	c1 e0 1a	 shl	 eax, 26			; 0000001aH
  03fa5	8b bd 84 fe ff
	ff		 mov	 edi, DWORD PTR _H$[ebp]
  03fab	c1 ef 06	 shr	 edi, 6
  03fae	0b f8		 or	 edi, eax
  03fb0	33 fe		 xor	 edi, esi
  03fb2	33 f9		 xor	 edi, ecx
  03fb4	03 bd c0 fe ff
	ff		 add	 edi, DWORD PTR _C$[ebp]
  03fba	03 bd bc fd ff
	ff		 add	 edi, DWORD PTR tv2854[ebp]
  03fc0	8d 8c 3a bb 0a
	6a 76		 lea	 ecx, DWORD PTR [edx+edi+1986661051]
  03fc7	89 4d f8	 mov	 DWORD PTR _temp1$[ebp], ecx
  03fca	8b 85 b4 fe ff
	ff		 mov	 eax, DWORD PTR _D$[ebp]
  03fd0	c1 e8 02	 shr	 eax, 2
  03fd3	8b 8d b4 fe ff
	ff		 mov	 ecx, DWORD PTR _D$[ebp]
  03fd9	c1 e1 1e	 shl	 ecx, 30			; 0000001eH
  03fdc	0b c1		 or	 eax, ecx
  03fde	8b 95 b4 fe ff
	ff		 mov	 edx, DWORD PTR _D$[ebp]
  03fe4	c1 ea 0d	 shr	 edx, 13			; 0000000dH
  03fe7	8b 8d b4 fe ff
	ff		 mov	 ecx, DWORD PTR _D$[ebp]
  03fed	c1 e1 13	 shl	 ecx, 19			; 00000013H
  03ff0	0b d1		 or	 edx, ecx
  03ff2	33 c2		 xor	 eax, edx
  03ff4	8b 95 b4 fe ff
	ff		 mov	 edx, DWORD PTR _D$[ebp]
  03ffa	c1 ea 16	 shr	 edx, 22			; 00000016H
  03ffd	8b 8d b4 fe ff
	ff		 mov	 ecx, DWORD PTR _D$[ebp]
  04003	c1 e1 0a	 shl	 ecx, 10			; 0000000aH
  04006	0b d1		 or	 edx, ecx
  04008	33 c2		 xor	 eax, edx
  0400a	8b 95 b4 fe ff
	ff		 mov	 edx, DWORD PTR _D$[ebp]
  04010	23 95 a8 fe ff
	ff		 and	 edx, DWORD PTR _E$[ebp]
  04016	8b 8d b4 fe ff
	ff		 mov	 ecx, DWORD PTR _D$[ebp]
  0401c	0b 8d a8 fe ff
	ff		 or	 ecx, DWORD PTR _E$[ebp]
  04022	23 8d 9c fe ff
	ff		 and	 ecx, DWORD PTR _F$[ebp]
  04028	0b d1		 or	 edx, ecx
  0402a	03 c2		 add	 eax, edx
  0402c	89 45 ec	 mov	 DWORD PTR _temp2$[ebp], eax
  0402f	8b 85 90 fe ff
	ff		 mov	 eax, DWORD PTR _G$[ebp]
  04035	03 45 f8	 add	 eax, DWORD PTR _temp1$[ebp]
  04038	89 85 90 fe ff
	ff		 mov	 DWORD PTR _G$[ebp], eax
  0403e	8b 45 f8	 mov	 eax, DWORD PTR _temp1$[ebp]
  04041	03 45 ec	 add	 eax, DWORD PTR _temp2$[ebp]
  04044	89 85 c0 fe ff
	ff		 mov	 DWORD PTR _C$[ebp], eax

; 152  :     P( C, D, E, F, G, H, A, B, R(38), 0x81C2C92E );

  0404a	b8 04 00 00 00	 mov	 eax, 4
  0404f	6b c8 24	 imul	 ecx, eax, 36
  04052	8b 94 0d e4 fe
	ff ff		 mov	 edx, DWORD PTR _W$[ebp+ecx]
  04059	c1 ea 11	 shr	 edx, 17			; 00000011H
  0405c	b8 04 00 00 00	 mov	 eax, 4
  04061	6b c8 24	 imul	 ecx, eax, 36
  04064	8b 84 0d e4 fe
	ff ff		 mov	 eax, DWORD PTR _W$[ebp+ecx]
  0406b	c1 e0 0f	 shl	 eax, 15			; 0000000fH
  0406e	0b d0		 or	 edx, eax
  04070	b9 04 00 00 00	 mov	 ecx, 4
  04075	6b c1 24	 imul	 eax, ecx, 36
  04078	8b 8c 05 e4 fe
	ff ff		 mov	 ecx, DWORD PTR _W$[ebp+eax]
  0407f	c1 e9 13	 shr	 ecx, 19			; 00000013H
  04082	b8 04 00 00 00	 mov	 eax, 4
  04087	6b c0 24	 imul	 eax, eax, 36
  0408a	8b 84 05 e4 fe
	ff ff		 mov	 eax, DWORD PTR _W$[ebp+eax]
  04091	c1 e0 0d	 shl	 eax, 13			; 0000000dH
  04094	0b c8		 or	 ecx, eax
  04096	33 d1		 xor	 edx, ecx
  04098	b9 04 00 00 00	 mov	 ecx, 4
  0409d	6b c1 24	 imul	 eax, ecx, 36
  040a0	8b 8c 05 e4 fe
	ff ff		 mov	 ecx, DWORD PTR _W$[ebp+eax]
  040a7	c1 e9 0a	 shr	 ecx, 10			; 0000000aH
  040aa	33 d1		 xor	 edx, ecx
  040ac	b8 04 00 00 00	 mov	 eax, 4
  040b1	6b c8 1f	 imul	 ecx, eax, 31
  040b4	03 94 0d e4 fe
	ff ff		 add	 edx, DWORD PTR _W$[ebp+ecx]
  040bb	b8 04 00 00 00	 mov	 eax, 4
  040c0	6b c8 17	 imul	 ecx, eax, 23
  040c3	8b 84 0d e4 fe
	ff ff		 mov	 eax, DWORD PTR _W$[ebp+ecx]
  040ca	c1 e8 07	 shr	 eax, 7
  040cd	b9 04 00 00 00	 mov	 ecx, 4
  040d2	6b c9 17	 imul	 ecx, ecx, 23
  040d5	8b 8c 0d e4 fe
	ff ff		 mov	 ecx, DWORD PTR _W$[ebp+ecx]
  040dc	c1 e1 19	 shl	 ecx, 25			; 00000019H
  040df	0b c1		 or	 eax, ecx
  040e1	b9 04 00 00 00	 mov	 ecx, 4
  040e6	6b c9 17	 imul	 ecx, ecx, 23
  040e9	8b 8c 0d e4 fe
	ff ff		 mov	 ecx, DWORD PTR _W$[ebp+ecx]
  040f0	c1 e9 12	 shr	 ecx, 18			; 00000012H
  040f3	be 04 00 00 00	 mov	 esi, 4
  040f8	6b f6 17	 imul	 esi, esi, 23
  040fb	8b b4 35 e4 fe
	ff ff		 mov	 esi, DWORD PTR _W$[ebp+esi]
  04102	c1 e6 0e	 shl	 esi, 14			; 0000000eH
  04105	0b ce		 or	 ecx, esi
  04107	33 c1		 xor	 eax, ecx
  04109	b9 04 00 00 00	 mov	 ecx, 4
  0410e	6b c9 17	 imul	 ecx, ecx, 23
  04111	8b 8c 0d e4 fe
	ff ff		 mov	 ecx, DWORD PTR _W$[ebp+ecx]
  04118	c1 e9 03	 shr	 ecx, 3
  0411b	33 c1		 xor	 eax, ecx
  0411d	03 d0		 add	 edx, eax
  0411f	b8 04 00 00 00	 mov	 eax, 4
  04124	6b c8 16	 imul	 ecx, eax, 22
  04127	03 94 0d e4 fe
	ff ff		 add	 edx, DWORD PTR _W$[ebp+ecx]
  0412e	89 95 bc fd ff
	ff		 mov	 DWORD PTR tv2937[ebp], edx
  04134	ba 04 00 00 00	 mov	 edx, 4
  04139	6b c2 26	 imul	 eax, edx, 38
  0413c	8b 8d bc fd ff
	ff		 mov	 ecx, DWORD PTR tv2937[ebp]
  04142	89 8c 05 e4 fe
	ff ff		 mov	 DWORD PTR _W$[ebp+eax], ecx
  04149	8b 95 84 fe ff
	ff		 mov	 edx, DWORD PTR _H$[ebp]
  0414f	33 95 d8 fe ff
	ff		 xor	 edx, DWORD PTR _A$[ebp]
  04155	23 95 90 fe ff
	ff		 and	 edx, DWORD PTR _G$[ebp]
  0415b	33 95 d8 fe ff
	ff		 xor	 edx, DWORD PTR _A$[ebp]
  04161	8b 85 90 fe ff
	ff		 mov	 eax, DWORD PTR _G$[ebp]
  04167	c1 e0 07	 shl	 eax, 7
  0416a	8b 8d 90 fe ff
	ff		 mov	 ecx, DWORD PTR _G$[ebp]
  04170	c1 e9 19	 shr	 ecx, 25			; 00000019H
  04173	0b c8		 or	 ecx, eax
  04175	8b 85 90 fe ff
	ff		 mov	 eax, DWORD PTR _G$[ebp]
  0417b	c1 e0 15	 shl	 eax, 21			; 00000015H
  0417e	8b b5 90 fe ff
	ff		 mov	 esi, DWORD PTR _G$[ebp]
  04184	c1 ee 0b	 shr	 esi, 11			; 0000000bH
  04187	0b f0		 or	 esi, eax
  04189	8b 85 90 fe ff
	ff		 mov	 eax, DWORD PTR _G$[ebp]
  0418f	c1 e0 1a	 shl	 eax, 26			; 0000001aH
  04192	8b bd 90 fe ff
	ff		 mov	 edi, DWORD PTR _G$[ebp]
  04198	c1 ef 06	 shr	 edi, 6
  0419b	0b f8		 or	 edi, eax
  0419d	33 fe		 xor	 edi, esi
  0419f	33 f9		 xor	 edi, ecx
  041a1	03 bd cc fe ff
	ff		 add	 edi, DWORD PTR _B$[ebp]
  041a7	03 bd bc fd ff
	ff		 add	 edi, DWORD PTR tv2937[ebp]
  041ad	8d 8c 3a 2e c9
	c2 81		 lea	 ecx, DWORD PTR [edx+edi-2117940946]
  041b4	89 4d f8	 mov	 DWORD PTR _temp1$[ebp], ecx
  041b7	8b 85 c0 fe ff
	ff		 mov	 eax, DWORD PTR _C$[ebp]
  041bd	c1 e8 02	 shr	 eax, 2
  041c0	8b 8d c0 fe ff
	ff		 mov	 ecx, DWORD PTR _C$[ebp]
  041c6	c1 e1 1e	 shl	 ecx, 30			; 0000001eH
  041c9	0b c1		 or	 eax, ecx
  041cb	8b 95 c0 fe ff
	ff		 mov	 edx, DWORD PTR _C$[ebp]
  041d1	c1 ea 0d	 shr	 edx, 13			; 0000000dH
  041d4	8b 8d c0 fe ff
	ff		 mov	 ecx, DWORD PTR _C$[ebp]
  041da	c1 e1 13	 shl	 ecx, 19			; 00000013H
  041dd	0b d1		 or	 edx, ecx
  041df	33 c2		 xor	 eax, edx
  041e1	8b 95 c0 fe ff
	ff		 mov	 edx, DWORD PTR _C$[ebp]
  041e7	c1 ea 16	 shr	 edx, 22			; 00000016H
  041ea	8b 8d c0 fe ff
	ff		 mov	 ecx, DWORD PTR _C$[ebp]
  041f0	c1 e1 0a	 shl	 ecx, 10			; 0000000aH
  041f3	0b d1		 or	 edx, ecx
  041f5	33 c2		 xor	 eax, edx
  041f7	8b 95 c0 fe ff
	ff		 mov	 edx, DWORD PTR _C$[ebp]
  041fd	23 95 b4 fe ff
	ff		 and	 edx, DWORD PTR _D$[ebp]
  04203	8b 8d c0 fe ff
	ff		 mov	 ecx, DWORD PTR _C$[ebp]
  04209	0b 8d b4 fe ff
	ff		 or	 ecx, DWORD PTR _D$[ebp]
  0420f	23 8d a8 fe ff
	ff		 and	 ecx, DWORD PTR _E$[ebp]
  04215	0b d1		 or	 edx, ecx
  04217	03 c2		 add	 eax, edx
  04219	89 45 ec	 mov	 DWORD PTR _temp2$[ebp], eax
  0421c	8b 85 9c fe ff
	ff		 mov	 eax, DWORD PTR _F$[ebp]
  04222	03 45 f8	 add	 eax, DWORD PTR _temp1$[ebp]
  04225	89 85 9c fe ff
	ff		 mov	 DWORD PTR _F$[ebp], eax
  0422b	8b 45 f8	 mov	 eax, DWORD PTR _temp1$[ebp]
  0422e	03 45 ec	 add	 eax, DWORD PTR _temp2$[ebp]
  04231	89 85 cc fe ff
	ff		 mov	 DWORD PTR _B$[ebp], eax

; 153  :     P( B, C, D, E, F, G, H, A, R(39), 0x92722C85 );

  04237	b8 04 00 00 00	 mov	 eax, 4
  0423c	6b c8 25	 imul	 ecx, eax, 37
  0423f	8b 94 0d e4 fe
	ff ff		 mov	 edx, DWORD PTR _W$[ebp+ecx]
  04246	c1 ea 11	 shr	 edx, 17			; 00000011H
  04249	b8 04 00 00 00	 mov	 eax, 4
  0424e	6b c8 25	 imul	 ecx, eax, 37
  04251	8b 84 0d e4 fe
	ff ff		 mov	 eax, DWORD PTR _W$[ebp+ecx]
  04258	c1 e0 0f	 shl	 eax, 15			; 0000000fH
  0425b	0b d0		 or	 edx, eax
  0425d	b9 04 00 00 00	 mov	 ecx, 4
  04262	6b c1 25	 imul	 eax, ecx, 37
  04265	8b 8c 05 e4 fe
	ff ff		 mov	 ecx, DWORD PTR _W$[ebp+eax]
  0426c	c1 e9 13	 shr	 ecx, 19			; 00000013H
  0426f	b8 04 00 00 00	 mov	 eax, 4
  04274	6b c0 25	 imul	 eax, eax, 37
  04277	8b 84 05 e4 fe
	ff ff		 mov	 eax, DWORD PTR _W$[ebp+eax]
  0427e	c1 e0 0d	 shl	 eax, 13			; 0000000dH
  04281	0b c8		 or	 ecx, eax
  04283	33 d1		 xor	 edx, ecx
  04285	b9 04 00 00 00	 mov	 ecx, 4
  0428a	6b c1 25	 imul	 eax, ecx, 37
  0428d	8b 8c 05 e4 fe
	ff ff		 mov	 ecx, DWORD PTR _W$[ebp+eax]
  04294	c1 e9 0a	 shr	 ecx, 10			; 0000000aH
  04297	33 d1		 xor	 edx, ecx
  04299	b8 04 00 00 00	 mov	 eax, 4
  0429e	c1 e0 05	 shl	 eax, 5
  042a1	03 94 05 e4 fe
	ff ff		 add	 edx, DWORD PTR _W$[ebp+eax]
  042a8	b9 04 00 00 00	 mov	 ecx, 4
  042ad	6b c1 18	 imul	 eax, ecx, 24
  042b0	8b 8c 05 e4 fe
	ff ff		 mov	 ecx, DWORD PTR _W$[ebp+eax]
  042b7	c1 e9 07	 shr	 ecx, 7
  042ba	b8 04 00 00 00	 mov	 eax, 4
  042bf	6b c0 18	 imul	 eax, eax, 24
  042c2	8b 84 05 e4 fe
	ff ff		 mov	 eax, DWORD PTR _W$[ebp+eax]
  042c9	c1 e0 19	 shl	 eax, 25			; 00000019H
  042cc	0b c8		 or	 ecx, eax
  042ce	b8 04 00 00 00	 mov	 eax, 4
  042d3	6b c0 18	 imul	 eax, eax, 24
  042d6	8b 84 05 e4 fe
	ff ff		 mov	 eax, DWORD PTR _W$[ebp+eax]
  042dd	c1 e8 12	 shr	 eax, 18			; 00000012H
  042e0	be 04 00 00 00	 mov	 esi, 4
  042e5	6b f6 18	 imul	 esi, esi, 24
  042e8	8b b4 35 e4 fe
	ff ff		 mov	 esi, DWORD PTR _W$[ebp+esi]
  042ef	c1 e6 0e	 shl	 esi, 14			; 0000000eH
  042f2	0b c6		 or	 eax, esi
  042f4	33 c8		 xor	 ecx, eax
  042f6	b8 04 00 00 00	 mov	 eax, 4
  042fb	6b c0 18	 imul	 eax, eax, 24
  042fe	8b 84 05 e4 fe
	ff ff		 mov	 eax, DWORD PTR _W$[ebp+eax]
  04305	c1 e8 03	 shr	 eax, 3
  04308	33 c8		 xor	 ecx, eax
  0430a	03 d1		 add	 edx, ecx
  0430c	b9 04 00 00 00	 mov	 ecx, 4
  04311	6b c1 17	 imul	 eax, ecx, 23
  04314	03 94 05 e4 fe
	ff ff		 add	 edx, DWORD PTR _W$[ebp+eax]
  0431b	89 95 bc fd ff
	ff		 mov	 DWORD PTR tv3020[ebp], edx
  04321	b9 04 00 00 00	 mov	 ecx, 4
  04326	6b d1 27	 imul	 edx, ecx, 39
  04329	8b 85 bc fd ff
	ff		 mov	 eax, DWORD PTR tv3020[ebp]
  0432f	89 84 15 e4 fe
	ff ff		 mov	 DWORD PTR _W$[ebp+edx], eax
  04336	8b 8d 90 fe ff
	ff		 mov	 ecx, DWORD PTR _G$[ebp]
  0433c	33 8d 84 fe ff
	ff		 xor	 ecx, DWORD PTR _H$[ebp]
  04342	23 8d 9c fe ff
	ff		 and	 ecx, DWORD PTR _F$[ebp]
  04348	33 8d 84 fe ff
	ff		 xor	 ecx, DWORD PTR _H$[ebp]
  0434e	8b 95 9c fe ff
	ff		 mov	 edx, DWORD PTR _F$[ebp]
  04354	c1 e2 07	 shl	 edx, 7
  04357	8b 85 9c fe ff
	ff		 mov	 eax, DWORD PTR _F$[ebp]
  0435d	c1 e8 19	 shr	 eax, 25			; 00000019H
  04360	0b c2		 or	 eax, edx
  04362	8b 95 9c fe ff
	ff		 mov	 edx, DWORD PTR _F$[ebp]
  04368	c1 e2 15	 shl	 edx, 21			; 00000015H
  0436b	8b b5 9c fe ff
	ff		 mov	 esi, DWORD PTR _F$[ebp]
  04371	c1 ee 0b	 shr	 esi, 11			; 0000000bH
  04374	0b f2		 or	 esi, edx
  04376	8b 95 9c fe ff
	ff		 mov	 edx, DWORD PTR _F$[ebp]
  0437c	c1 e2 1a	 shl	 edx, 26			; 0000001aH
  0437f	8b bd 9c fe ff
	ff		 mov	 edi, DWORD PTR _F$[ebp]
  04385	c1 ef 06	 shr	 edi, 6
  04388	0b fa		 or	 edi, edx
  0438a	33 fe		 xor	 edi, esi
  0438c	33 f8		 xor	 edi, eax
  0438e	03 bd d8 fe ff
	ff		 add	 edi, DWORD PTR _A$[ebp]
  04394	03 bd bc fd ff
	ff		 add	 edi, DWORD PTR tv3020[ebp]
  0439a	8d 84 39 85 2c
	72 92		 lea	 eax, DWORD PTR [ecx+edi-1838011259]
  043a1	89 45 f8	 mov	 DWORD PTR _temp1$[ebp], eax
  043a4	8b 85 cc fe ff
	ff		 mov	 eax, DWORD PTR _B$[ebp]
  043aa	c1 e8 02	 shr	 eax, 2
  043ad	8b 8d cc fe ff
	ff		 mov	 ecx, DWORD PTR _B$[ebp]
  043b3	c1 e1 1e	 shl	 ecx, 30			; 0000001eH
  043b6	0b c1		 or	 eax, ecx
  043b8	8b 95 cc fe ff
	ff		 mov	 edx, DWORD PTR _B$[ebp]
  043be	c1 ea 0d	 shr	 edx, 13			; 0000000dH
  043c1	8b 8d cc fe ff
	ff		 mov	 ecx, DWORD PTR _B$[ebp]
  043c7	c1 e1 13	 shl	 ecx, 19			; 00000013H
  043ca	0b d1		 or	 edx, ecx
  043cc	33 c2		 xor	 eax, edx
  043ce	8b 95 cc fe ff
	ff		 mov	 edx, DWORD PTR _B$[ebp]
  043d4	c1 ea 16	 shr	 edx, 22			; 00000016H
  043d7	8b 8d cc fe ff
	ff		 mov	 ecx, DWORD PTR _B$[ebp]
  043dd	c1 e1 0a	 shl	 ecx, 10			; 0000000aH
  043e0	0b d1		 or	 edx, ecx
  043e2	33 c2		 xor	 eax, edx
  043e4	8b 95 cc fe ff
	ff		 mov	 edx, DWORD PTR _B$[ebp]
  043ea	23 95 c0 fe ff
	ff		 and	 edx, DWORD PTR _C$[ebp]
  043f0	8b 8d cc fe ff
	ff		 mov	 ecx, DWORD PTR _B$[ebp]
  043f6	0b 8d c0 fe ff
	ff		 or	 ecx, DWORD PTR _C$[ebp]
  043fc	23 8d b4 fe ff
	ff		 and	 ecx, DWORD PTR _D$[ebp]
  04402	0b d1		 or	 edx, ecx
  04404	03 c2		 add	 eax, edx
  04406	89 45 ec	 mov	 DWORD PTR _temp2$[ebp], eax
  04409	8b 85 a8 fe ff
	ff		 mov	 eax, DWORD PTR _E$[ebp]
  0440f	03 45 f8	 add	 eax, DWORD PTR _temp1$[ebp]
  04412	89 85 a8 fe ff
	ff		 mov	 DWORD PTR _E$[ebp], eax
  04418	8b 45 f8	 mov	 eax, DWORD PTR _temp1$[ebp]
  0441b	03 45 ec	 add	 eax, DWORD PTR _temp2$[ebp]
  0441e	89 85 d8 fe ff
	ff		 mov	 DWORD PTR _A$[ebp], eax

; 154  :     P( A, B, C, D, E, F, G, H, R(40), 0xA2BFE8A1 );

  04424	b8 04 00 00 00	 mov	 eax, 4
  04429	6b c8 26	 imul	 ecx, eax, 38
  0442c	8b 94 0d e4 fe
	ff ff		 mov	 edx, DWORD PTR _W$[ebp+ecx]
  04433	c1 ea 11	 shr	 edx, 17			; 00000011H
  04436	b8 04 00 00 00	 mov	 eax, 4
  0443b	6b c8 26	 imul	 ecx, eax, 38
  0443e	8b 84 0d e4 fe
	ff ff		 mov	 eax, DWORD PTR _W$[ebp+ecx]
  04445	c1 e0 0f	 shl	 eax, 15			; 0000000fH
  04448	0b d0		 or	 edx, eax
  0444a	b9 04 00 00 00	 mov	 ecx, 4
  0444f	6b c1 26	 imul	 eax, ecx, 38
  04452	8b 8c 05 e4 fe
	ff ff		 mov	 ecx, DWORD PTR _W$[ebp+eax]
  04459	c1 e9 13	 shr	 ecx, 19			; 00000013H
  0445c	b8 04 00 00 00	 mov	 eax, 4
  04461	6b c0 26	 imul	 eax, eax, 38
  04464	8b 84 05 e4 fe
	ff ff		 mov	 eax, DWORD PTR _W$[ebp+eax]
  0446b	c1 e0 0d	 shl	 eax, 13			; 0000000dH
  0446e	0b c8		 or	 ecx, eax
  04470	33 d1		 xor	 edx, ecx
  04472	b9 04 00 00 00	 mov	 ecx, 4
  04477	6b c1 26	 imul	 eax, ecx, 38
  0447a	8b 8c 05 e4 fe
	ff ff		 mov	 ecx, DWORD PTR _W$[ebp+eax]
  04481	c1 e9 0a	 shr	 ecx, 10			; 0000000aH
  04484	33 d1		 xor	 edx, ecx
  04486	b8 04 00 00 00	 mov	 eax, 4
  0448b	6b c8 21	 imul	 ecx, eax, 33
  0448e	03 94 0d e4 fe
	ff ff		 add	 edx, DWORD PTR _W$[ebp+ecx]
  04495	b8 04 00 00 00	 mov	 eax, 4
  0449a	6b c8 19	 imul	 ecx, eax, 25
  0449d	8b 84 0d e4 fe
	ff ff		 mov	 eax, DWORD PTR _W$[ebp+ecx]
  044a4	c1 e8 07	 shr	 eax, 7
  044a7	b9 04 00 00 00	 mov	 ecx, 4
  044ac	6b c9 19	 imul	 ecx, ecx, 25
  044af	8b 8c 0d e4 fe
	ff ff		 mov	 ecx, DWORD PTR _W$[ebp+ecx]
  044b6	c1 e1 19	 shl	 ecx, 25			; 00000019H
  044b9	0b c1		 or	 eax, ecx
  044bb	b9 04 00 00 00	 mov	 ecx, 4
  044c0	6b c9 19	 imul	 ecx, ecx, 25
  044c3	8b 8c 0d e4 fe
	ff ff		 mov	 ecx, DWORD PTR _W$[ebp+ecx]
  044ca	c1 e9 12	 shr	 ecx, 18			; 00000012H
  044cd	be 04 00 00 00	 mov	 esi, 4
  044d2	6b f6 19	 imul	 esi, esi, 25
  044d5	8b b4 35 e4 fe
	ff ff		 mov	 esi, DWORD PTR _W$[ebp+esi]
  044dc	c1 e6 0e	 shl	 esi, 14			; 0000000eH
  044df	0b ce		 or	 ecx, esi
  044e1	33 c1		 xor	 eax, ecx
  044e3	b9 04 00 00 00	 mov	 ecx, 4
  044e8	6b c9 19	 imul	 ecx, ecx, 25
  044eb	8b 8c 0d e4 fe
	ff ff		 mov	 ecx, DWORD PTR _W$[ebp+ecx]
  044f2	c1 e9 03	 shr	 ecx, 3
  044f5	33 c1		 xor	 eax, ecx
  044f7	03 d0		 add	 edx, eax
  044f9	b8 04 00 00 00	 mov	 eax, 4
  044fe	6b c8 18	 imul	 ecx, eax, 24
  04501	03 94 0d e4 fe
	ff ff		 add	 edx, DWORD PTR _W$[ebp+ecx]
  04508	89 95 bc fd ff
	ff		 mov	 DWORD PTR tv3103[ebp], edx
  0450e	ba 04 00 00 00	 mov	 edx, 4
  04513	6b c2 28	 imul	 eax, edx, 40
  04516	8b 8d bc fd ff
	ff		 mov	 ecx, DWORD PTR tv3103[ebp]
  0451c	89 8c 05 e4 fe
	ff ff		 mov	 DWORD PTR _W$[ebp+eax], ecx
  04523	8b 95 9c fe ff
	ff		 mov	 edx, DWORD PTR _F$[ebp]
  04529	33 95 90 fe ff
	ff		 xor	 edx, DWORD PTR _G$[ebp]
  0452f	23 95 a8 fe ff
	ff		 and	 edx, DWORD PTR _E$[ebp]
  04535	33 95 90 fe ff
	ff		 xor	 edx, DWORD PTR _G$[ebp]
  0453b	8b 85 a8 fe ff
	ff		 mov	 eax, DWORD PTR _E$[ebp]
  04541	c1 e0 07	 shl	 eax, 7
  04544	8b 8d a8 fe ff
	ff		 mov	 ecx, DWORD PTR _E$[ebp]
  0454a	c1 e9 19	 shr	 ecx, 25			; 00000019H
  0454d	0b c8		 or	 ecx, eax
  0454f	8b 85 a8 fe ff
	ff		 mov	 eax, DWORD PTR _E$[ebp]
  04555	c1 e0 15	 shl	 eax, 21			; 00000015H
  04558	8b b5 a8 fe ff
	ff		 mov	 esi, DWORD PTR _E$[ebp]
  0455e	c1 ee 0b	 shr	 esi, 11			; 0000000bH
  04561	0b f0		 or	 esi, eax
  04563	8b 85 a8 fe ff
	ff		 mov	 eax, DWORD PTR _E$[ebp]
  04569	c1 e0 1a	 shl	 eax, 26			; 0000001aH
  0456c	8b bd a8 fe ff
	ff		 mov	 edi, DWORD PTR _E$[ebp]
  04572	c1 ef 06	 shr	 edi, 6
  04575	0b f8		 or	 edi, eax
  04577	33 fe		 xor	 edi, esi
  04579	33 f9		 xor	 edi, ecx
  0457b	03 bd 84 fe ff
	ff		 add	 edi, DWORD PTR _H$[ebp]
  04581	03 bd bc fd ff
	ff		 add	 edi, DWORD PTR tv3103[ebp]
  04587	8d 8c 3a a1 e8
	bf a2		 lea	 ecx, DWORD PTR [edx+edi-1564481375]
  0458e	89 4d f8	 mov	 DWORD PTR _temp1$[ebp], ecx
  04591	8b 85 d8 fe ff
	ff		 mov	 eax, DWORD PTR _A$[ebp]
  04597	c1 e8 02	 shr	 eax, 2
  0459a	8b 8d d8 fe ff
	ff		 mov	 ecx, DWORD PTR _A$[ebp]
  045a0	c1 e1 1e	 shl	 ecx, 30			; 0000001eH
  045a3	0b c1		 or	 eax, ecx
  045a5	8b 95 d8 fe ff
	ff		 mov	 edx, DWORD PTR _A$[ebp]
  045ab	c1 ea 0d	 shr	 edx, 13			; 0000000dH
  045ae	8b 8d d8 fe ff
	ff		 mov	 ecx, DWORD PTR _A$[ebp]
  045b4	c1 e1 13	 shl	 ecx, 19			; 00000013H
  045b7	0b d1		 or	 edx, ecx
  045b9	33 c2		 xor	 eax, edx
  045bb	8b 95 d8 fe ff
	ff		 mov	 edx, DWORD PTR _A$[ebp]
  045c1	c1 ea 16	 shr	 edx, 22			; 00000016H
  045c4	8b 8d d8 fe ff
	ff		 mov	 ecx, DWORD PTR _A$[ebp]
  045ca	c1 e1 0a	 shl	 ecx, 10			; 0000000aH
  045cd	0b d1		 or	 edx, ecx
  045cf	33 c2		 xor	 eax, edx
  045d1	8b 95 d8 fe ff
	ff		 mov	 edx, DWORD PTR _A$[ebp]
  045d7	23 95 cc fe ff
	ff		 and	 edx, DWORD PTR _B$[ebp]
  045dd	8b 8d d8 fe ff
	ff		 mov	 ecx, DWORD PTR _A$[ebp]
  045e3	0b 8d cc fe ff
	ff		 or	 ecx, DWORD PTR _B$[ebp]
  045e9	23 8d c0 fe ff
	ff		 and	 ecx, DWORD PTR _C$[ebp]
  045ef	0b d1		 or	 edx, ecx
  045f1	03 c2		 add	 eax, edx
  045f3	89 45 ec	 mov	 DWORD PTR _temp2$[ebp], eax
  045f6	8b 85 b4 fe ff
	ff		 mov	 eax, DWORD PTR _D$[ebp]
  045fc	03 45 f8	 add	 eax, DWORD PTR _temp1$[ebp]
  045ff	89 85 b4 fe ff
	ff		 mov	 DWORD PTR _D$[ebp], eax
  04605	8b 45 f8	 mov	 eax, DWORD PTR _temp1$[ebp]
  04608	03 45 ec	 add	 eax, DWORD PTR _temp2$[ebp]
  0460b	89 85 84 fe ff
	ff		 mov	 DWORD PTR _H$[ebp], eax

; 155  :     P( H, A, B, C, D, E, F, G, R(41), 0xA81A664B );

  04611	b8 04 00 00 00	 mov	 eax, 4
  04616	6b c8 27	 imul	 ecx, eax, 39
  04619	8b 94 0d e4 fe
	ff ff		 mov	 edx, DWORD PTR _W$[ebp+ecx]
  04620	c1 ea 11	 shr	 edx, 17			; 00000011H
  04623	b8 04 00 00 00	 mov	 eax, 4
  04628	6b c8 27	 imul	 ecx, eax, 39
  0462b	8b 84 0d e4 fe
	ff ff		 mov	 eax, DWORD PTR _W$[ebp+ecx]
  04632	c1 e0 0f	 shl	 eax, 15			; 0000000fH
  04635	0b d0		 or	 edx, eax
  04637	b9 04 00 00 00	 mov	 ecx, 4
  0463c	6b c1 27	 imul	 eax, ecx, 39
  0463f	8b 8c 05 e4 fe
	ff ff		 mov	 ecx, DWORD PTR _W$[ebp+eax]
  04646	c1 e9 13	 shr	 ecx, 19			; 00000013H
  04649	b8 04 00 00 00	 mov	 eax, 4
  0464e	6b c0 27	 imul	 eax, eax, 39
  04651	8b 84 05 e4 fe
	ff ff		 mov	 eax, DWORD PTR _W$[ebp+eax]
  04658	c1 e0 0d	 shl	 eax, 13			; 0000000dH
  0465b	0b c8		 or	 ecx, eax
  0465d	33 d1		 xor	 edx, ecx
  0465f	b9 04 00 00 00	 mov	 ecx, 4
  04664	6b c1 27	 imul	 eax, ecx, 39
  04667	8b 8c 05 e4 fe
	ff ff		 mov	 ecx, DWORD PTR _W$[ebp+eax]
  0466e	c1 e9 0a	 shr	 ecx, 10			; 0000000aH
  04671	33 d1		 xor	 edx, ecx
  04673	b8 04 00 00 00	 mov	 eax, 4
  04678	6b c8 22	 imul	 ecx, eax, 34
  0467b	03 94 0d e4 fe
	ff ff		 add	 edx, DWORD PTR _W$[ebp+ecx]
  04682	b8 04 00 00 00	 mov	 eax, 4
  04687	6b c8 1a	 imul	 ecx, eax, 26
  0468a	8b 84 0d e4 fe
	ff ff		 mov	 eax, DWORD PTR _W$[ebp+ecx]
  04691	c1 e8 07	 shr	 eax, 7
  04694	b9 04 00 00 00	 mov	 ecx, 4
  04699	6b c9 1a	 imul	 ecx, ecx, 26
  0469c	8b 8c 0d e4 fe
	ff ff		 mov	 ecx, DWORD PTR _W$[ebp+ecx]
  046a3	c1 e1 19	 shl	 ecx, 25			; 00000019H
  046a6	0b c1		 or	 eax, ecx
  046a8	b9 04 00 00 00	 mov	 ecx, 4
  046ad	6b c9 1a	 imul	 ecx, ecx, 26
  046b0	8b 8c 0d e4 fe
	ff ff		 mov	 ecx, DWORD PTR _W$[ebp+ecx]
  046b7	c1 e9 12	 shr	 ecx, 18			; 00000012H
  046ba	be 04 00 00 00	 mov	 esi, 4
  046bf	6b f6 1a	 imul	 esi, esi, 26
  046c2	8b b4 35 e4 fe
	ff ff		 mov	 esi, DWORD PTR _W$[ebp+esi]
  046c9	c1 e6 0e	 shl	 esi, 14			; 0000000eH
  046cc	0b ce		 or	 ecx, esi
  046ce	33 c1		 xor	 eax, ecx
  046d0	b9 04 00 00 00	 mov	 ecx, 4
  046d5	6b c9 1a	 imul	 ecx, ecx, 26
  046d8	8b 8c 0d e4 fe
	ff ff		 mov	 ecx, DWORD PTR _W$[ebp+ecx]
  046df	c1 e9 03	 shr	 ecx, 3
  046e2	33 c1		 xor	 eax, ecx
  046e4	03 d0		 add	 edx, eax
  046e6	b8 04 00 00 00	 mov	 eax, 4
  046eb	6b c8 19	 imul	 ecx, eax, 25
  046ee	03 94 0d e4 fe
	ff ff		 add	 edx, DWORD PTR _W$[ebp+ecx]
  046f5	89 95 bc fd ff
	ff		 mov	 DWORD PTR tv3186[ebp], edx
  046fb	ba 04 00 00 00	 mov	 edx, 4
  04700	6b c2 29	 imul	 eax, edx, 41
  04703	8b 8d bc fd ff
	ff		 mov	 ecx, DWORD PTR tv3186[ebp]
  04709	89 8c 05 e4 fe
	ff ff		 mov	 DWORD PTR _W$[ebp+eax], ecx
  04710	8b 95 a8 fe ff
	ff		 mov	 edx, DWORD PTR _E$[ebp]
  04716	33 95 9c fe ff
	ff		 xor	 edx, DWORD PTR _F$[ebp]
  0471c	23 95 b4 fe ff
	ff		 and	 edx, DWORD PTR _D$[ebp]
  04722	33 95 9c fe ff
	ff		 xor	 edx, DWORD PTR _F$[ebp]
  04728	8b 85 b4 fe ff
	ff		 mov	 eax, DWORD PTR _D$[ebp]
  0472e	c1 e0 07	 shl	 eax, 7
  04731	8b 8d b4 fe ff
	ff		 mov	 ecx, DWORD PTR _D$[ebp]
  04737	c1 e9 19	 shr	 ecx, 25			; 00000019H
  0473a	0b c8		 or	 ecx, eax
  0473c	8b 85 b4 fe ff
	ff		 mov	 eax, DWORD PTR _D$[ebp]
  04742	c1 e0 15	 shl	 eax, 21			; 00000015H
  04745	8b b5 b4 fe ff
	ff		 mov	 esi, DWORD PTR _D$[ebp]
  0474b	c1 ee 0b	 shr	 esi, 11			; 0000000bH
  0474e	0b f0		 or	 esi, eax
  04750	8b 85 b4 fe ff
	ff		 mov	 eax, DWORD PTR _D$[ebp]
  04756	c1 e0 1a	 shl	 eax, 26			; 0000001aH
  04759	8b bd b4 fe ff
	ff		 mov	 edi, DWORD PTR _D$[ebp]
  0475f	c1 ef 06	 shr	 edi, 6
  04762	0b f8		 or	 edi, eax
  04764	33 fe		 xor	 edi, esi
  04766	33 f9		 xor	 edi, ecx
  04768	03 bd 90 fe ff
	ff		 add	 edi, DWORD PTR _G$[ebp]
  0476e	03 bd bc fd ff
	ff		 add	 edi, DWORD PTR tv3186[ebp]
  04774	8d 8c 3a 4b 66
	1a a8		 lea	 ecx, DWORD PTR [edx+edi-1474664885]
  0477b	89 4d f8	 mov	 DWORD PTR _temp1$[ebp], ecx
  0477e	8b 85 84 fe ff
	ff		 mov	 eax, DWORD PTR _H$[ebp]
  04784	c1 e8 02	 shr	 eax, 2
  04787	8b 8d 84 fe ff
	ff		 mov	 ecx, DWORD PTR _H$[ebp]
  0478d	c1 e1 1e	 shl	 ecx, 30			; 0000001eH
  04790	0b c1		 or	 eax, ecx
  04792	8b 95 84 fe ff
	ff		 mov	 edx, DWORD PTR _H$[ebp]
  04798	c1 ea 0d	 shr	 edx, 13			; 0000000dH
  0479b	8b 8d 84 fe ff
	ff		 mov	 ecx, DWORD PTR _H$[ebp]
  047a1	c1 e1 13	 shl	 ecx, 19			; 00000013H
  047a4	0b d1		 or	 edx, ecx
  047a6	33 c2		 xor	 eax, edx
  047a8	8b 95 84 fe ff
	ff		 mov	 edx, DWORD PTR _H$[ebp]
  047ae	c1 ea 16	 shr	 edx, 22			; 00000016H
  047b1	8b 8d 84 fe ff
	ff		 mov	 ecx, DWORD PTR _H$[ebp]
  047b7	c1 e1 0a	 shl	 ecx, 10			; 0000000aH
  047ba	0b d1		 or	 edx, ecx
  047bc	33 c2		 xor	 eax, edx
  047be	8b 95 84 fe ff
	ff		 mov	 edx, DWORD PTR _H$[ebp]
  047c4	23 95 d8 fe ff
	ff		 and	 edx, DWORD PTR _A$[ebp]
  047ca	8b 8d 84 fe ff
	ff		 mov	 ecx, DWORD PTR _H$[ebp]
  047d0	0b 8d d8 fe ff
	ff		 or	 ecx, DWORD PTR _A$[ebp]
  047d6	23 8d cc fe ff
	ff		 and	 ecx, DWORD PTR _B$[ebp]
  047dc	0b d1		 or	 edx, ecx
  047de	03 c2		 add	 eax, edx
  047e0	89 45 ec	 mov	 DWORD PTR _temp2$[ebp], eax
  047e3	8b 85 c0 fe ff
	ff		 mov	 eax, DWORD PTR _C$[ebp]
  047e9	03 45 f8	 add	 eax, DWORD PTR _temp1$[ebp]
  047ec	89 85 c0 fe ff
	ff		 mov	 DWORD PTR _C$[ebp], eax
  047f2	8b 45 f8	 mov	 eax, DWORD PTR _temp1$[ebp]
  047f5	03 45 ec	 add	 eax, DWORD PTR _temp2$[ebp]
  047f8	89 85 90 fe ff
	ff		 mov	 DWORD PTR _G$[ebp], eax

; 156  :     P( G, H, A, B, C, D, E, F, R(42), 0xC24B8B70 );

  047fe	b8 04 00 00 00	 mov	 eax, 4
  04803	6b c8 28	 imul	 ecx, eax, 40
  04806	8b 94 0d e4 fe
	ff ff		 mov	 edx, DWORD PTR _W$[ebp+ecx]
  0480d	c1 ea 11	 shr	 edx, 17			; 00000011H
  04810	b8 04 00 00 00	 mov	 eax, 4
  04815	6b c8 28	 imul	 ecx, eax, 40
  04818	8b 84 0d e4 fe
	ff ff		 mov	 eax, DWORD PTR _W$[ebp+ecx]
  0481f	c1 e0 0f	 shl	 eax, 15			; 0000000fH
  04822	0b d0		 or	 edx, eax
  04824	b9 04 00 00 00	 mov	 ecx, 4
  04829	6b c1 28	 imul	 eax, ecx, 40
  0482c	8b 8c 05 e4 fe
	ff ff		 mov	 ecx, DWORD PTR _W$[ebp+eax]
  04833	c1 e9 13	 shr	 ecx, 19			; 00000013H
  04836	b8 04 00 00 00	 mov	 eax, 4
  0483b	6b c0 28	 imul	 eax, eax, 40
  0483e	8b 84 05 e4 fe
	ff ff		 mov	 eax, DWORD PTR _W$[ebp+eax]
  04845	c1 e0 0d	 shl	 eax, 13			; 0000000dH
  04848	0b c8		 or	 ecx, eax
  0484a	33 d1		 xor	 edx, ecx
  0484c	b9 04 00 00 00	 mov	 ecx, 4
  04851	6b c1 28	 imul	 eax, ecx, 40
  04854	8b 8c 05 e4 fe
	ff ff		 mov	 ecx, DWORD PTR _W$[ebp+eax]
  0485b	c1 e9 0a	 shr	 ecx, 10			; 0000000aH
  0485e	33 d1		 xor	 edx, ecx
  04860	b8 04 00 00 00	 mov	 eax, 4
  04865	6b c8 23	 imul	 ecx, eax, 35
  04868	03 94 0d e4 fe
	ff ff		 add	 edx, DWORD PTR _W$[ebp+ecx]
  0486f	b8 04 00 00 00	 mov	 eax, 4
  04874	6b c8 1b	 imul	 ecx, eax, 27
  04877	8b 84 0d e4 fe
	ff ff		 mov	 eax, DWORD PTR _W$[ebp+ecx]
  0487e	c1 e8 07	 shr	 eax, 7
  04881	b9 04 00 00 00	 mov	 ecx, 4
  04886	6b c9 1b	 imul	 ecx, ecx, 27
  04889	8b 8c 0d e4 fe
	ff ff		 mov	 ecx, DWORD PTR _W$[ebp+ecx]
  04890	c1 e1 19	 shl	 ecx, 25			; 00000019H
  04893	0b c1		 or	 eax, ecx
  04895	b9 04 00 00 00	 mov	 ecx, 4
  0489a	6b c9 1b	 imul	 ecx, ecx, 27
  0489d	8b 8c 0d e4 fe
	ff ff		 mov	 ecx, DWORD PTR _W$[ebp+ecx]
  048a4	c1 e9 12	 shr	 ecx, 18			; 00000012H
  048a7	be 04 00 00 00	 mov	 esi, 4
  048ac	6b f6 1b	 imul	 esi, esi, 27
  048af	8b b4 35 e4 fe
	ff ff		 mov	 esi, DWORD PTR _W$[ebp+esi]
  048b6	c1 e6 0e	 shl	 esi, 14			; 0000000eH
  048b9	0b ce		 or	 ecx, esi
  048bb	33 c1		 xor	 eax, ecx
  048bd	b9 04 00 00 00	 mov	 ecx, 4
  048c2	6b c9 1b	 imul	 ecx, ecx, 27
  048c5	8b 8c 0d e4 fe
	ff ff		 mov	 ecx, DWORD PTR _W$[ebp+ecx]
  048cc	c1 e9 03	 shr	 ecx, 3
  048cf	33 c1		 xor	 eax, ecx
  048d1	03 d0		 add	 edx, eax
  048d3	b8 04 00 00 00	 mov	 eax, 4
  048d8	6b c8 1a	 imul	 ecx, eax, 26
  048db	03 94 0d e4 fe
	ff ff		 add	 edx, DWORD PTR _W$[ebp+ecx]
  048e2	89 95 bc fd ff
	ff		 mov	 DWORD PTR tv3269[ebp], edx
  048e8	ba 04 00 00 00	 mov	 edx, 4
  048ed	6b c2 2a	 imul	 eax, edx, 42
  048f0	8b 8d bc fd ff
	ff		 mov	 ecx, DWORD PTR tv3269[ebp]
  048f6	89 8c 05 e4 fe
	ff ff		 mov	 DWORD PTR _W$[ebp+eax], ecx
  048fd	8b 95 b4 fe ff
	ff		 mov	 edx, DWORD PTR _D$[ebp]
  04903	33 95 a8 fe ff
	ff		 xor	 edx, DWORD PTR _E$[ebp]
  04909	23 95 c0 fe ff
	ff		 and	 edx, DWORD PTR _C$[ebp]
  0490f	33 95 a8 fe ff
	ff		 xor	 edx, DWORD PTR _E$[ebp]
  04915	8b 85 c0 fe ff
	ff		 mov	 eax, DWORD PTR _C$[ebp]
  0491b	c1 e0 07	 shl	 eax, 7
  0491e	8b 8d c0 fe ff
	ff		 mov	 ecx, DWORD PTR _C$[ebp]
  04924	c1 e9 19	 shr	 ecx, 25			; 00000019H
  04927	0b c8		 or	 ecx, eax
  04929	8b 85 c0 fe ff
	ff		 mov	 eax, DWORD PTR _C$[ebp]
  0492f	c1 e0 15	 shl	 eax, 21			; 00000015H
  04932	8b b5 c0 fe ff
	ff		 mov	 esi, DWORD PTR _C$[ebp]
  04938	c1 ee 0b	 shr	 esi, 11			; 0000000bH
  0493b	0b f0		 or	 esi, eax
  0493d	8b 85 c0 fe ff
	ff		 mov	 eax, DWORD PTR _C$[ebp]
  04943	c1 e0 1a	 shl	 eax, 26			; 0000001aH
  04946	8b bd c0 fe ff
	ff		 mov	 edi, DWORD PTR _C$[ebp]
  0494c	c1 ef 06	 shr	 edi, 6
  0494f	0b f8		 or	 edi, eax
  04951	33 fe		 xor	 edi, esi
  04953	33 f9		 xor	 edi, ecx
  04955	03 bd 9c fe ff
	ff		 add	 edi, DWORD PTR _F$[ebp]
  0495b	03 bd bc fd ff
	ff		 add	 edi, DWORD PTR tv3269[ebp]
  04961	8d 8c 3a 70 8b
	4b c2		 lea	 ecx, DWORD PTR [edx+edi-1035236496]
  04968	89 4d f8	 mov	 DWORD PTR _temp1$[ebp], ecx
  0496b	8b 85 90 fe ff
	ff		 mov	 eax, DWORD PTR _G$[ebp]
  04971	c1 e8 02	 shr	 eax, 2
  04974	8b 8d 90 fe ff
	ff		 mov	 ecx, DWORD PTR _G$[ebp]
  0497a	c1 e1 1e	 shl	 ecx, 30			; 0000001eH
  0497d	0b c1		 or	 eax, ecx
  0497f	8b 95 90 fe ff
	ff		 mov	 edx, DWORD PTR _G$[ebp]
  04985	c1 ea 0d	 shr	 edx, 13			; 0000000dH
  04988	8b 8d 90 fe ff
	ff		 mov	 ecx, DWORD PTR _G$[ebp]
  0498e	c1 e1 13	 shl	 ecx, 19			; 00000013H
  04991	0b d1		 or	 edx, ecx
  04993	33 c2		 xor	 eax, edx
  04995	8b 95 90 fe ff
	ff		 mov	 edx, DWORD PTR _G$[ebp]
  0499b	c1 ea 16	 shr	 edx, 22			; 00000016H
  0499e	8b 8d 90 fe ff
	ff		 mov	 ecx, DWORD PTR _G$[ebp]
  049a4	c1 e1 0a	 shl	 ecx, 10			; 0000000aH
  049a7	0b d1		 or	 edx, ecx
  049a9	33 c2		 xor	 eax, edx
  049ab	8b 95 90 fe ff
	ff		 mov	 edx, DWORD PTR _G$[ebp]
  049b1	23 95 84 fe ff
	ff		 and	 edx, DWORD PTR _H$[ebp]
  049b7	8b 8d 90 fe ff
	ff		 mov	 ecx, DWORD PTR _G$[ebp]
  049bd	0b 8d 84 fe ff
	ff		 or	 ecx, DWORD PTR _H$[ebp]
  049c3	23 8d d8 fe ff
	ff		 and	 ecx, DWORD PTR _A$[ebp]
  049c9	0b d1		 or	 edx, ecx
  049cb	03 c2		 add	 eax, edx
  049cd	89 45 ec	 mov	 DWORD PTR _temp2$[ebp], eax
  049d0	8b 85 cc fe ff
	ff		 mov	 eax, DWORD PTR _B$[ebp]
  049d6	03 45 f8	 add	 eax, DWORD PTR _temp1$[ebp]
  049d9	89 85 cc fe ff
	ff		 mov	 DWORD PTR _B$[ebp], eax
  049df	8b 45 f8	 mov	 eax, DWORD PTR _temp1$[ebp]
  049e2	03 45 ec	 add	 eax, DWORD PTR _temp2$[ebp]
  049e5	89 85 9c fe ff
	ff		 mov	 DWORD PTR _F$[ebp], eax

; 157  :     P( F, G, H, A, B, C, D, E, R(43), 0xC76C51A3 );

  049eb	b8 04 00 00 00	 mov	 eax, 4
  049f0	6b c8 29	 imul	 ecx, eax, 41
  049f3	8b 94 0d e4 fe
	ff ff		 mov	 edx, DWORD PTR _W$[ebp+ecx]
  049fa	c1 ea 11	 shr	 edx, 17			; 00000011H
  049fd	b8 04 00 00 00	 mov	 eax, 4
  04a02	6b c8 29	 imul	 ecx, eax, 41
  04a05	8b 84 0d e4 fe
	ff ff		 mov	 eax, DWORD PTR _W$[ebp+ecx]
  04a0c	c1 e0 0f	 shl	 eax, 15			; 0000000fH
  04a0f	0b d0		 or	 edx, eax
  04a11	b9 04 00 00 00	 mov	 ecx, 4
  04a16	6b c1 29	 imul	 eax, ecx, 41
  04a19	8b 8c 05 e4 fe
	ff ff		 mov	 ecx, DWORD PTR _W$[ebp+eax]
  04a20	c1 e9 13	 shr	 ecx, 19			; 00000013H
  04a23	b8 04 00 00 00	 mov	 eax, 4
  04a28	6b c0 29	 imul	 eax, eax, 41
  04a2b	8b 84 05 e4 fe
	ff ff		 mov	 eax, DWORD PTR _W$[ebp+eax]
  04a32	c1 e0 0d	 shl	 eax, 13			; 0000000dH
  04a35	0b c8		 or	 ecx, eax
  04a37	33 d1		 xor	 edx, ecx
  04a39	b9 04 00 00 00	 mov	 ecx, 4
  04a3e	6b c1 29	 imul	 eax, ecx, 41
  04a41	8b 8c 05 e4 fe
	ff ff		 mov	 ecx, DWORD PTR _W$[ebp+eax]
  04a48	c1 e9 0a	 shr	 ecx, 10			; 0000000aH
  04a4b	33 d1		 xor	 edx, ecx
  04a4d	b8 04 00 00 00	 mov	 eax, 4
  04a52	6b c8 24	 imul	 ecx, eax, 36
  04a55	03 94 0d e4 fe
	ff ff		 add	 edx, DWORD PTR _W$[ebp+ecx]
  04a5c	b8 04 00 00 00	 mov	 eax, 4
  04a61	6b c8 1c	 imul	 ecx, eax, 28
  04a64	8b 84 0d e4 fe
	ff ff		 mov	 eax, DWORD PTR _W$[ebp+ecx]
  04a6b	c1 e8 07	 shr	 eax, 7
  04a6e	b9 04 00 00 00	 mov	 ecx, 4
  04a73	6b c9 1c	 imul	 ecx, ecx, 28
  04a76	8b 8c 0d e4 fe
	ff ff		 mov	 ecx, DWORD PTR _W$[ebp+ecx]
  04a7d	c1 e1 19	 shl	 ecx, 25			; 00000019H
  04a80	0b c1		 or	 eax, ecx
  04a82	b9 04 00 00 00	 mov	 ecx, 4
  04a87	6b c9 1c	 imul	 ecx, ecx, 28
  04a8a	8b 8c 0d e4 fe
	ff ff		 mov	 ecx, DWORD PTR _W$[ebp+ecx]
  04a91	c1 e9 12	 shr	 ecx, 18			; 00000012H
  04a94	be 04 00 00 00	 mov	 esi, 4
  04a99	6b f6 1c	 imul	 esi, esi, 28
  04a9c	8b b4 35 e4 fe
	ff ff		 mov	 esi, DWORD PTR _W$[ebp+esi]
  04aa3	c1 e6 0e	 shl	 esi, 14			; 0000000eH
  04aa6	0b ce		 or	 ecx, esi
  04aa8	33 c1		 xor	 eax, ecx
  04aaa	b9 04 00 00 00	 mov	 ecx, 4
  04aaf	6b c9 1c	 imul	 ecx, ecx, 28
  04ab2	8b 8c 0d e4 fe
	ff ff		 mov	 ecx, DWORD PTR _W$[ebp+ecx]
  04ab9	c1 e9 03	 shr	 ecx, 3
  04abc	33 c1		 xor	 eax, ecx
  04abe	03 d0		 add	 edx, eax
  04ac0	b8 04 00 00 00	 mov	 eax, 4
  04ac5	6b c8 1b	 imul	 ecx, eax, 27
  04ac8	03 94 0d e4 fe
	ff ff		 add	 edx, DWORD PTR _W$[ebp+ecx]
  04acf	89 95 bc fd ff
	ff		 mov	 DWORD PTR tv3352[ebp], edx
  04ad5	ba 04 00 00 00	 mov	 edx, 4
  04ada	6b c2 2b	 imul	 eax, edx, 43
  04add	8b 8d bc fd ff
	ff		 mov	 ecx, DWORD PTR tv3352[ebp]
  04ae3	89 8c 05 e4 fe
	ff ff		 mov	 DWORD PTR _W$[ebp+eax], ecx
  04aea	8b 95 c0 fe ff
	ff		 mov	 edx, DWORD PTR _C$[ebp]
  04af0	33 95 b4 fe ff
	ff		 xor	 edx, DWORD PTR _D$[ebp]
  04af6	23 95 cc fe ff
	ff		 and	 edx, DWORD PTR _B$[ebp]
  04afc	33 95 b4 fe ff
	ff		 xor	 edx, DWORD PTR _D$[ebp]
  04b02	8b 85 cc fe ff
	ff		 mov	 eax, DWORD PTR _B$[ebp]
  04b08	c1 e0 07	 shl	 eax, 7
  04b0b	8b 8d cc fe ff
	ff		 mov	 ecx, DWORD PTR _B$[ebp]
  04b11	c1 e9 19	 shr	 ecx, 25			; 00000019H
  04b14	0b c8		 or	 ecx, eax
  04b16	8b 85 cc fe ff
	ff		 mov	 eax, DWORD PTR _B$[ebp]
  04b1c	c1 e0 15	 shl	 eax, 21			; 00000015H
  04b1f	8b b5 cc fe ff
	ff		 mov	 esi, DWORD PTR _B$[ebp]
  04b25	c1 ee 0b	 shr	 esi, 11			; 0000000bH
  04b28	0b f0		 or	 esi, eax
  04b2a	8b 85 cc fe ff
	ff		 mov	 eax, DWORD PTR _B$[ebp]
  04b30	c1 e0 1a	 shl	 eax, 26			; 0000001aH
  04b33	8b bd cc fe ff
	ff		 mov	 edi, DWORD PTR _B$[ebp]
  04b39	c1 ef 06	 shr	 edi, 6
  04b3c	0b f8		 or	 edi, eax
  04b3e	33 fe		 xor	 edi, esi
  04b40	33 f9		 xor	 edi, ecx
  04b42	03 bd a8 fe ff
	ff		 add	 edi, DWORD PTR _E$[ebp]
  04b48	03 bd bc fd ff
	ff		 add	 edi, DWORD PTR tv3352[ebp]
  04b4e	8d 8c 3a a3 51
	6c c7		 lea	 ecx, DWORD PTR [edx+edi-949202525]
  04b55	89 4d f8	 mov	 DWORD PTR _temp1$[ebp], ecx
  04b58	8b 85 9c fe ff
	ff		 mov	 eax, DWORD PTR _F$[ebp]
  04b5e	c1 e8 02	 shr	 eax, 2
  04b61	8b 8d 9c fe ff
	ff		 mov	 ecx, DWORD PTR _F$[ebp]
  04b67	c1 e1 1e	 shl	 ecx, 30			; 0000001eH
  04b6a	0b c1		 or	 eax, ecx
  04b6c	8b 95 9c fe ff
	ff		 mov	 edx, DWORD PTR _F$[ebp]
  04b72	c1 ea 0d	 shr	 edx, 13			; 0000000dH
  04b75	8b 8d 9c fe ff
	ff		 mov	 ecx, DWORD PTR _F$[ebp]
  04b7b	c1 e1 13	 shl	 ecx, 19			; 00000013H
  04b7e	0b d1		 or	 edx, ecx
  04b80	33 c2		 xor	 eax, edx
  04b82	8b 95 9c fe ff
	ff		 mov	 edx, DWORD PTR _F$[ebp]
  04b88	c1 ea 16	 shr	 edx, 22			; 00000016H
  04b8b	8b 8d 9c fe ff
	ff		 mov	 ecx, DWORD PTR _F$[ebp]
  04b91	c1 e1 0a	 shl	 ecx, 10			; 0000000aH
  04b94	0b d1		 or	 edx, ecx
  04b96	33 c2		 xor	 eax, edx
  04b98	8b 95 9c fe ff
	ff		 mov	 edx, DWORD PTR _F$[ebp]
  04b9e	23 95 90 fe ff
	ff		 and	 edx, DWORD PTR _G$[ebp]
  04ba4	8b 8d 9c fe ff
	ff		 mov	 ecx, DWORD PTR _F$[ebp]
  04baa	0b 8d 90 fe ff
	ff		 or	 ecx, DWORD PTR _G$[ebp]
  04bb0	23 8d 84 fe ff
	ff		 and	 ecx, DWORD PTR _H$[ebp]
  04bb6	0b d1		 or	 edx, ecx
  04bb8	03 c2		 add	 eax, edx
  04bba	89 45 ec	 mov	 DWORD PTR _temp2$[ebp], eax
  04bbd	8b 85 d8 fe ff
	ff		 mov	 eax, DWORD PTR _A$[ebp]
  04bc3	03 45 f8	 add	 eax, DWORD PTR _temp1$[ebp]
  04bc6	89 85 d8 fe ff
	ff		 mov	 DWORD PTR _A$[ebp], eax
  04bcc	8b 45 f8	 mov	 eax, DWORD PTR _temp1$[ebp]
  04bcf	03 45 ec	 add	 eax, DWORD PTR _temp2$[ebp]
  04bd2	89 85 a8 fe ff
	ff		 mov	 DWORD PTR _E$[ebp], eax

; 158  :     P( E, F, G, H, A, B, C, D, R(44), 0xD192E819 );

  04bd8	b8 04 00 00 00	 mov	 eax, 4
  04bdd	6b c8 2a	 imul	 ecx, eax, 42
  04be0	8b 94 0d e4 fe
	ff ff		 mov	 edx, DWORD PTR _W$[ebp+ecx]
  04be7	c1 ea 11	 shr	 edx, 17			; 00000011H
  04bea	b8 04 00 00 00	 mov	 eax, 4
  04bef	6b c8 2a	 imul	 ecx, eax, 42
  04bf2	8b 84 0d e4 fe
	ff ff		 mov	 eax, DWORD PTR _W$[ebp+ecx]
  04bf9	c1 e0 0f	 shl	 eax, 15			; 0000000fH
  04bfc	0b d0		 or	 edx, eax
  04bfe	b9 04 00 00 00	 mov	 ecx, 4
  04c03	6b c1 2a	 imul	 eax, ecx, 42
  04c06	8b 8c 05 e4 fe
	ff ff		 mov	 ecx, DWORD PTR _W$[ebp+eax]
  04c0d	c1 e9 13	 shr	 ecx, 19			; 00000013H
  04c10	b8 04 00 00 00	 mov	 eax, 4
  04c15	6b c0 2a	 imul	 eax, eax, 42
  04c18	8b 84 05 e4 fe
	ff ff		 mov	 eax, DWORD PTR _W$[ebp+eax]
  04c1f	c1 e0 0d	 shl	 eax, 13			; 0000000dH
  04c22	0b c8		 or	 ecx, eax
  04c24	33 d1		 xor	 edx, ecx
  04c26	b9 04 00 00 00	 mov	 ecx, 4
  04c2b	6b c1 2a	 imul	 eax, ecx, 42
  04c2e	8b 8c 05 e4 fe
	ff ff		 mov	 ecx, DWORD PTR _W$[ebp+eax]
  04c35	c1 e9 0a	 shr	 ecx, 10			; 0000000aH
  04c38	33 d1		 xor	 edx, ecx
  04c3a	b8 04 00 00 00	 mov	 eax, 4
  04c3f	6b c8 25	 imul	 ecx, eax, 37
  04c42	03 94 0d e4 fe
	ff ff		 add	 edx, DWORD PTR _W$[ebp+ecx]
  04c49	b8 04 00 00 00	 mov	 eax, 4
  04c4e	6b c8 1d	 imul	 ecx, eax, 29
  04c51	8b 84 0d e4 fe
	ff ff		 mov	 eax, DWORD PTR _W$[ebp+ecx]
  04c58	c1 e8 07	 shr	 eax, 7
  04c5b	b9 04 00 00 00	 mov	 ecx, 4
  04c60	6b c9 1d	 imul	 ecx, ecx, 29
  04c63	8b 8c 0d e4 fe
	ff ff		 mov	 ecx, DWORD PTR _W$[ebp+ecx]
  04c6a	c1 e1 19	 shl	 ecx, 25			; 00000019H
  04c6d	0b c1		 or	 eax, ecx
  04c6f	b9 04 00 00 00	 mov	 ecx, 4
  04c74	6b c9 1d	 imul	 ecx, ecx, 29
  04c77	8b 8c 0d e4 fe
	ff ff		 mov	 ecx, DWORD PTR _W$[ebp+ecx]
  04c7e	c1 e9 12	 shr	 ecx, 18			; 00000012H
  04c81	be 04 00 00 00	 mov	 esi, 4
  04c86	6b f6 1d	 imul	 esi, esi, 29
  04c89	8b b4 35 e4 fe
	ff ff		 mov	 esi, DWORD PTR _W$[ebp+esi]
  04c90	c1 e6 0e	 shl	 esi, 14			; 0000000eH
  04c93	0b ce		 or	 ecx, esi
  04c95	33 c1		 xor	 eax, ecx
  04c97	b9 04 00 00 00	 mov	 ecx, 4
  04c9c	6b c9 1d	 imul	 ecx, ecx, 29
  04c9f	8b 8c 0d e4 fe
	ff ff		 mov	 ecx, DWORD PTR _W$[ebp+ecx]
  04ca6	c1 e9 03	 shr	 ecx, 3
  04ca9	33 c1		 xor	 eax, ecx
  04cab	03 d0		 add	 edx, eax
  04cad	b8 04 00 00 00	 mov	 eax, 4
  04cb2	6b c8 1c	 imul	 ecx, eax, 28
  04cb5	03 94 0d e4 fe
	ff ff		 add	 edx, DWORD PTR _W$[ebp+ecx]
  04cbc	89 95 bc fd ff
	ff		 mov	 DWORD PTR tv3435[ebp], edx
  04cc2	ba 04 00 00 00	 mov	 edx, 4
  04cc7	6b c2 2c	 imul	 eax, edx, 44
  04cca	8b 8d bc fd ff
	ff		 mov	 ecx, DWORD PTR tv3435[ebp]
  04cd0	89 8c 05 e4 fe
	ff ff		 mov	 DWORD PTR _W$[ebp+eax], ecx
  04cd7	8b 95 cc fe ff
	ff		 mov	 edx, DWORD PTR _B$[ebp]
  04cdd	33 95 c0 fe ff
	ff		 xor	 edx, DWORD PTR _C$[ebp]
  04ce3	23 95 d8 fe ff
	ff		 and	 edx, DWORD PTR _A$[ebp]
  04ce9	33 95 c0 fe ff
	ff		 xor	 edx, DWORD PTR _C$[ebp]
  04cef	8b 85 d8 fe ff
	ff		 mov	 eax, DWORD PTR _A$[ebp]
  04cf5	c1 e0 07	 shl	 eax, 7
  04cf8	8b 8d d8 fe ff
	ff		 mov	 ecx, DWORD PTR _A$[ebp]
  04cfe	c1 e9 19	 shr	 ecx, 25			; 00000019H
  04d01	0b c8		 or	 ecx, eax
  04d03	8b 85 d8 fe ff
	ff		 mov	 eax, DWORD PTR _A$[ebp]
  04d09	c1 e0 15	 shl	 eax, 21			; 00000015H
  04d0c	8b b5 d8 fe ff
	ff		 mov	 esi, DWORD PTR _A$[ebp]
  04d12	c1 ee 0b	 shr	 esi, 11			; 0000000bH
  04d15	0b f0		 or	 esi, eax
  04d17	8b 85 d8 fe ff
	ff		 mov	 eax, DWORD PTR _A$[ebp]
  04d1d	c1 e0 1a	 shl	 eax, 26			; 0000001aH
  04d20	8b bd d8 fe ff
	ff		 mov	 edi, DWORD PTR _A$[ebp]
  04d26	c1 ef 06	 shr	 edi, 6
  04d29	0b f8		 or	 edi, eax
  04d2b	33 fe		 xor	 edi, esi
  04d2d	33 f9		 xor	 edi, ecx
  04d2f	03 bd b4 fe ff
	ff		 add	 edi, DWORD PTR _D$[ebp]
  04d35	03 bd bc fd ff
	ff		 add	 edi, DWORD PTR tv3435[ebp]
  04d3b	8d 8c 3a 19 e8
	92 d1		 lea	 ecx, DWORD PTR [edx+edi-778901479]
  04d42	89 4d f8	 mov	 DWORD PTR _temp1$[ebp], ecx
  04d45	8b 85 a8 fe ff
	ff		 mov	 eax, DWORD PTR _E$[ebp]
  04d4b	c1 e8 02	 shr	 eax, 2
  04d4e	8b 8d a8 fe ff
	ff		 mov	 ecx, DWORD PTR _E$[ebp]
  04d54	c1 e1 1e	 shl	 ecx, 30			; 0000001eH
  04d57	0b c1		 or	 eax, ecx
  04d59	8b 95 a8 fe ff
	ff		 mov	 edx, DWORD PTR _E$[ebp]
  04d5f	c1 ea 0d	 shr	 edx, 13			; 0000000dH
  04d62	8b 8d a8 fe ff
	ff		 mov	 ecx, DWORD PTR _E$[ebp]
  04d68	c1 e1 13	 shl	 ecx, 19			; 00000013H
  04d6b	0b d1		 or	 edx, ecx
  04d6d	33 c2		 xor	 eax, edx
  04d6f	8b 95 a8 fe ff
	ff		 mov	 edx, DWORD PTR _E$[ebp]
  04d75	c1 ea 16	 shr	 edx, 22			; 00000016H
  04d78	8b 8d a8 fe ff
	ff		 mov	 ecx, DWORD PTR _E$[ebp]
  04d7e	c1 e1 0a	 shl	 ecx, 10			; 0000000aH
  04d81	0b d1		 or	 edx, ecx
  04d83	33 c2		 xor	 eax, edx
  04d85	8b 95 a8 fe ff
	ff		 mov	 edx, DWORD PTR _E$[ebp]
  04d8b	23 95 9c fe ff
	ff		 and	 edx, DWORD PTR _F$[ebp]
  04d91	8b 8d a8 fe ff
	ff		 mov	 ecx, DWORD PTR _E$[ebp]
  04d97	0b 8d 9c fe ff
	ff		 or	 ecx, DWORD PTR _F$[ebp]
  04d9d	23 8d 90 fe ff
	ff		 and	 ecx, DWORD PTR _G$[ebp]
  04da3	0b d1		 or	 edx, ecx
  04da5	03 c2		 add	 eax, edx
  04da7	89 45 ec	 mov	 DWORD PTR _temp2$[ebp], eax
  04daa	8b 85 84 fe ff
	ff		 mov	 eax, DWORD PTR _H$[ebp]
  04db0	03 45 f8	 add	 eax, DWORD PTR _temp1$[ebp]
  04db3	89 85 84 fe ff
	ff		 mov	 DWORD PTR _H$[ebp], eax
  04db9	8b 45 f8	 mov	 eax, DWORD PTR _temp1$[ebp]
  04dbc	03 45 ec	 add	 eax, DWORD PTR _temp2$[ebp]
  04dbf	89 85 b4 fe ff
	ff		 mov	 DWORD PTR _D$[ebp], eax

; 159  :     P( D, E, F, G, H, A, B, C, R(45), 0xD6990624 );

  04dc5	b8 04 00 00 00	 mov	 eax, 4
  04dca	6b c8 2b	 imul	 ecx, eax, 43
  04dcd	8b 94 0d e4 fe
	ff ff		 mov	 edx, DWORD PTR _W$[ebp+ecx]
  04dd4	c1 ea 11	 shr	 edx, 17			; 00000011H
  04dd7	b8 04 00 00 00	 mov	 eax, 4
  04ddc	6b c8 2b	 imul	 ecx, eax, 43
  04ddf	8b 84 0d e4 fe
	ff ff		 mov	 eax, DWORD PTR _W$[ebp+ecx]
  04de6	c1 e0 0f	 shl	 eax, 15			; 0000000fH
  04de9	0b d0		 or	 edx, eax
  04deb	b9 04 00 00 00	 mov	 ecx, 4
  04df0	6b c1 2b	 imul	 eax, ecx, 43
  04df3	8b 8c 05 e4 fe
	ff ff		 mov	 ecx, DWORD PTR _W$[ebp+eax]
  04dfa	c1 e9 13	 shr	 ecx, 19			; 00000013H
  04dfd	b8 04 00 00 00	 mov	 eax, 4
  04e02	6b c0 2b	 imul	 eax, eax, 43
  04e05	8b 84 05 e4 fe
	ff ff		 mov	 eax, DWORD PTR _W$[ebp+eax]
  04e0c	c1 e0 0d	 shl	 eax, 13			; 0000000dH
  04e0f	0b c8		 or	 ecx, eax
  04e11	33 d1		 xor	 edx, ecx
  04e13	b9 04 00 00 00	 mov	 ecx, 4
  04e18	6b c1 2b	 imul	 eax, ecx, 43
  04e1b	8b 8c 05 e4 fe
	ff ff		 mov	 ecx, DWORD PTR _W$[ebp+eax]
  04e22	c1 e9 0a	 shr	 ecx, 10			; 0000000aH
  04e25	33 d1		 xor	 edx, ecx
  04e27	b8 04 00 00 00	 mov	 eax, 4
  04e2c	6b c8 26	 imul	 ecx, eax, 38
  04e2f	03 94 0d e4 fe
	ff ff		 add	 edx, DWORD PTR _W$[ebp+ecx]
  04e36	b8 04 00 00 00	 mov	 eax, 4
  04e3b	6b c8 1e	 imul	 ecx, eax, 30
  04e3e	8b 84 0d e4 fe
	ff ff		 mov	 eax, DWORD PTR _W$[ebp+ecx]
  04e45	c1 e8 07	 shr	 eax, 7
  04e48	b9 04 00 00 00	 mov	 ecx, 4
  04e4d	6b c9 1e	 imul	 ecx, ecx, 30
  04e50	8b 8c 0d e4 fe
	ff ff		 mov	 ecx, DWORD PTR _W$[ebp+ecx]
  04e57	c1 e1 19	 shl	 ecx, 25			; 00000019H
  04e5a	0b c1		 or	 eax, ecx
  04e5c	b9 04 00 00 00	 mov	 ecx, 4
  04e61	6b c9 1e	 imul	 ecx, ecx, 30
  04e64	8b 8c 0d e4 fe
	ff ff		 mov	 ecx, DWORD PTR _W$[ebp+ecx]
  04e6b	c1 e9 12	 shr	 ecx, 18			; 00000012H
  04e6e	be 04 00 00 00	 mov	 esi, 4
  04e73	6b f6 1e	 imul	 esi, esi, 30
  04e76	8b b4 35 e4 fe
	ff ff		 mov	 esi, DWORD PTR _W$[ebp+esi]
  04e7d	c1 e6 0e	 shl	 esi, 14			; 0000000eH
  04e80	0b ce		 or	 ecx, esi
  04e82	33 c1		 xor	 eax, ecx
  04e84	b9 04 00 00 00	 mov	 ecx, 4
  04e89	6b c9 1e	 imul	 ecx, ecx, 30
  04e8c	8b 8c 0d e4 fe
	ff ff		 mov	 ecx, DWORD PTR _W$[ebp+ecx]
  04e93	c1 e9 03	 shr	 ecx, 3
  04e96	33 c1		 xor	 eax, ecx
  04e98	03 d0		 add	 edx, eax
  04e9a	b8 04 00 00 00	 mov	 eax, 4
  04e9f	6b c8 1d	 imul	 ecx, eax, 29
  04ea2	03 94 0d e4 fe
	ff ff		 add	 edx, DWORD PTR _W$[ebp+ecx]
  04ea9	89 95 bc fd ff
	ff		 mov	 DWORD PTR tv3518[ebp], edx
  04eaf	ba 04 00 00 00	 mov	 edx, 4
  04eb4	6b c2 2d	 imul	 eax, edx, 45
  04eb7	8b 8d bc fd ff
	ff		 mov	 ecx, DWORD PTR tv3518[ebp]
  04ebd	89 8c 05 e4 fe
	ff ff		 mov	 DWORD PTR _W$[ebp+eax], ecx
  04ec4	8b 95 d8 fe ff
	ff		 mov	 edx, DWORD PTR _A$[ebp]
  04eca	33 95 cc fe ff
	ff		 xor	 edx, DWORD PTR _B$[ebp]
  04ed0	23 95 84 fe ff
	ff		 and	 edx, DWORD PTR _H$[ebp]
  04ed6	33 95 cc fe ff
	ff		 xor	 edx, DWORD PTR _B$[ebp]
  04edc	8b 85 84 fe ff
	ff		 mov	 eax, DWORD PTR _H$[ebp]
  04ee2	c1 e0 07	 shl	 eax, 7
  04ee5	8b 8d 84 fe ff
	ff		 mov	 ecx, DWORD PTR _H$[ebp]
  04eeb	c1 e9 19	 shr	 ecx, 25			; 00000019H
  04eee	0b c8		 or	 ecx, eax
  04ef0	8b 85 84 fe ff
	ff		 mov	 eax, DWORD PTR _H$[ebp]
  04ef6	c1 e0 15	 shl	 eax, 21			; 00000015H
  04ef9	8b b5 84 fe ff
	ff		 mov	 esi, DWORD PTR _H$[ebp]
  04eff	c1 ee 0b	 shr	 esi, 11			; 0000000bH
  04f02	0b f0		 or	 esi, eax
  04f04	8b 85 84 fe ff
	ff		 mov	 eax, DWORD PTR _H$[ebp]
  04f0a	c1 e0 1a	 shl	 eax, 26			; 0000001aH
  04f0d	8b bd 84 fe ff
	ff		 mov	 edi, DWORD PTR _H$[ebp]
  04f13	c1 ef 06	 shr	 edi, 6
  04f16	0b f8		 or	 edi, eax
  04f18	33 fe		 xor	 edi, esi
  04f1a	33 f9		 xor	 edi, ecx
  04f1c	03 bd c0 fe ff
	ff		 add	 edi, DWORD PTR _C$[ebp]
  04f22	03 bd bc fd ff
	ff		 add	 edi, DWORD PTR tv3518[ebp]
  04f28	8d 8c 3a 24 06
	99 d6		 lea	 ecx, DWORD PTR [edx+edi-694614492]
  04f2f	89 4d f8	 mov	 DWORD PTR _temp1$[ebp], ecx
  04f32	8b 85 b4 fe ff
	ff		 mov	 eax, DWORD PTR _D$[ebp]
  04f38	c1 e8 02	 shr	 eax, 2
  04f3b	8b 8d b4 fe ff
	ff		 mov	 ecx, DWORD PTR _D$[ebp]
  04f41	c1 e1 1e	 shl	 ecx, 30			; 0000001eH
  04f44	0b c1		 or	 eax, ecx
  04f46	8b 95 b4 fe ff
	ff		 mov	 edx, DWORD PTR _D$[ebp]
  04f4c	c1 ea 0d	 shr	 edx, 13			; 0000000dH
  04f4f	8b 8d b4 fe ff
	ff		 mov	 ecx, DWORD PTR _D$[ebp]
  04f55	c1 e1 13	 shl	 ecx, 19			; 00000013H
  04f58	0b d1		 or	 edx, ecx
  04f5a	33 c2		 xor	 eax, edx
  04f5c	8b 95 b4 fe ff
	ff		 mov	 edx, DWORD PTR _D$[ebp]
  04f62	c1 ea 16	 shr	 edx, 22			; 00000016H
  04f65	8b 8d b4 fe ff
	ff		 mov	 ecx, DWORD PTR _D$[ebp]
  04f6b	c1 e1 0a	 shl	 ecx, 10			; 0000000aH
  04f6e	0b d1		 or	 edx, ecx
  04f70	33 c2		 xor	 eax, edx
  04f72	8b 95 b4 fe ff
	ff		 mov	 edx, DWORD PTR _D$[ebp]
  04f78	23 95 a8 fe ff
	ff		 and	 edx, DWORD PTR _E$[ebp]
  04f7e	8b 8d b4 fe ff
	ff		 mov	 ecx, DWORD PTR _D$[ebp]
  04f84	0b 8d a8 fe ff
	ff		 or	 ecx, DWORD PTR _E$[ebp]
  04f8a	23 8d 9c fe ff
	ff		 and	 ecx, DWORD PTR _F$[ebp]
  04f90	0b d1		 or	 edx, ecx
  04f92	03 c2		 add	 eax, edx
  04f94	89 45 ec	 mov	 DWORD PTR _temp2$[ebp], eax
  04f97	8b 85 90 fe ff
	ff		 mov	 eax, DWORD PTR _G$[ebp]
  04f9d	03 45 f8	 add	 eax, DWORD PTR _temp1$[ebp]
  04fa0	89 85 90 fe ff
	ff		 mov	 DWORD PTR _G$[ebp], eax
  04fa6	8b 45 f8	 mov	 eax, DWORD PTR _temp1$[ebp]
  04fa9	03 45 ec	 add	 eax, DWORD PTR _temp2$[ebp]
  04fac	89 85 c0 fe ff
	ff		 mov	 DWORD PTR _C$[ebp], eax

; 160  :     P( C, D, E, F, G, H, A, B, R(46), 0xF40E3585 );

  04fb2	b8 04 00 00 00	 mov	 eax, 4
  04fb7	6b c8 2c	 imul	 ecx, eax, 44
  04fba	8b 94 0d e4 fe
	ff ff		 mov	 edx, DWORD PTR _W$[ebp+ecx]
  04fc1	c1 ea 11	 shr	 edx, 17			; 00000011H
  04fc4	b8 04 00 00 00	 mov	 eax, 4
  04fc9	6b c8 2c	 imul	 ecx, eax, 44
  04fcc	8b 84 0d e4 fe
	ff ff		 mov	 eax, DWORD PTR _W$[ebp+ecx]
  04fd3	c1 e0 0f	 shl	 eax, 15			; 0000000fH
  04fd6	0b d0		 or	 edx, eax
  04fd8	b9 04 00 00 00	 mov	 ecx, 4
  04fdd	6b c1 2c	 imul	 eax, ecx, 44
  04fe0	8b 8c 05 e4 fe
	ff ff		 mov	 ecx, DWORD PTR _W$[ebp+eax]
  04fe7	c1 e9 13	 shr	 ecx, 19			; 00000013H
  04fea	b8 04 00 00 00	 mov	 eax, 4
  04fef	6b c0 2c	 imul	 eax, eax, 44
  04ff2	8b 84 05 e4 fe
	ff ff		 mov	 eax, DWORD PTR _W$[ebp+eax]
  04ff9	c1 e0 0d	 shl	 eax, 13			; 0000000dH
  04ffc	0b c8		 or	 ecx, eax
  04ffe	33 d1		 xor	 edx, ecx
  05000	b9 04 00 00 00	 mov	 ecx, 4
  05005	6b c1 2c	 imul	 eax, ecx, 44
  05008	8b 8c 05 e4 fe
	ff ff		 mov	 ecx, DWORD PTR _W$[ebp+eax]
  0500f	c1 e9 0a	 shr	 ecx, 10			; 0000000aH
  05012	33 d1		 xor	 edx, ecx
  05014	b8 04 00 00 00	 mov	 eax, 4
  05019	6b c8 27	 imul	 ecx, eax, 39
  0501c	03 94 0d e4 fe
	ff ff		 add	 edx, DWORD PTR _W$[ebp+ecx]
  05023	b8 04 00 00 00	 mov	 eax, 4
  05028	6b c8 1f	 imul	 ecx, eax, 31
  0502b	8b 84 0d e4 fe
	ff ff		 mov	 eax, DWORD PTR _W$[ebp+ecx]
  05032	c1 e8 07	 shr	 eax, 7
  05035	b9 04 00 00 00	 mov	 ecx, 4
  0503a	6b c9 1f	 imul	 ecx, ecx, 31
  0503d	8b 8c 0d e4 fe
	ff ff		 mov	 ecx, DWORD PTR _W$[ebp+ecx]
  05044	c1 e1 19	 shl	 ecx, 25			; 00000019H
  05047	0b c1		 or	 eax, ecx
  05049	b9 04 00 00 00	 mov	 ecx, 4
  0504e	6b c9 1f	 imul	 ecx, ecx, 31
  05051	8b 8c 0d e4 fe
	ff ff		 mov	 ecx, DWORD PTR _W$[ebp+ecx]
  05058	c1 e9 12	 shr	 ecx, 18			; 00000012H
  0505b	be 04 00 00 00	 mov	 esi, 4
  05060	6b f6 1f	 imul	 esi, esi, 31
  05063	8b b4 35 e4 fe
	ff ff		 mov	 esi, DWORD PTR _W$[ebp+esi]
  0506a	c1 e6 0e	 shl	 esi, 14			; 0000000eH
  0506d	0b ce		 or	 ecx, esi
  0506f	33 c1		 xor	 eax, ecx
  05071	b9 04 00 00 00	 mov	 ecx, 4
  05076	6b c9 1f	 imul	 ecx, ecx, 31
  05079	8b 8c 0d e4 fe
	ff ff		 mov	 ecx, DWORD PTR _W$[ebp+ecx]
  05080	c1 e9 03	 shr	 ecx, 3
  05083	33 c1		 xor	 eax, ecx
  05085	03 d0		 add	 edx, eax
  05087	b8 04 00 00 00	 mov	 eax, 4
  0508c	6b c8 1e	 imul	 ecx, eax, 30
  0508f	03 94 0d e4 fe
	ff ff		 add	 edx, DWORD PTR _W$[ebp+ecx]
  05096	89 95 bc fd ff
	ff		 mov	 DWORD PTR tv3601[ebp], edx
  0509c	ba 04 00 00 00	 mov	 edx, 4
  050a1	6b c2 2e	 imul	 eax, edx, 46
  050a4	8b 8d bc fd ff
	ff		 mov	 ecx, DWORD PTR tv3601[ebp]
  050aa	89 8c 05 e4 fe
	ff ff		 mov	 DWORD PTR _W$[ebp+eax], ecx
  050b1	8b 95 84 fe ff
	ff		 mov	 edx, DWORD PTR _H$[ebp]
  050b7	33 95 d8 fe ff
	ff		 xor	 edx, DWORD PTR _A$[ebp]
  050bd	23 95 90 fe ff
	ff		 and	 edx, DWORD PTR _G$[ebp]
  050c3	33 95 d8 fe ff
	ff		 xor	 edx, DWORD PTR _A$[ebp]
  050c9	8b 85 90 fe ff
	ff		 mov	 eax, DWORD PTR _G$[ebp]
  050cf	c1 e0 07	 shl	 eax, 7
  050d2	8b 8d 90 fe ff
	ff		 mov	 ecx, DWORD PTR _G$[ebp]
  050d8	c1 e9 19	 shr	 ecx, 25			; 00000019H
  050db	0b c8		 or	 ecx, eax
  050dd	8b 85 90 fe ff
	ff		 mov	 eax, DWORD PTR _G$[ebp]
  050e3	c1 e0 15	 shl	 eax, 21			; 00000015H
  050e6	8b b5 90 fe ff
	ff		 mov	 esi, DWORD PTR _G$[ebp]
  050ec	c1 ee 0b	 shr	 esi, 11			; 0000000bH
  050ef	0b f0		 or	 esi, eax
  050f1	8b 85 90 fe ff
	ff		 mov	 eax, DWORD PTR _G$[ebp]
  050f7	c1 e0 1a	 shl	 eax, 26			; 0000001aH
  050fa	8b bd 90 fe ff
	ff		 mov	 edi, DWORD PTR _G$[ebp]
  05100	c1 ef 06	 shr	 edi, 6
  05103	0b f8		 or	 edi, eax
  05105	33 fe		 xor	 edi, esi
  05107	33 f9		 xor	 edi, ecx
  05109	03 bd cc fe ff
	ff		 add	 edi, DWORD PTR _B$[ebp]
  0510f	03 bd bc fd ff
	ff		 add	 edi, DWORD PTR tv3601[ebp]
  05115	8d 8c 3a 85 35
	0e f4		 lea	 ecx, DWORD PTR [edx+edi-200395387]
  0511c	89 4d f8	 mov	 DWORD PTR _temp1$[ebp], ecx
  0511f	8b 85 c0 fe ff
	ff		 mov	 eax, DWORD PTR _C$[ebp]
  05125	c1 e8 02	 shr	 eax, 2
  05128	8b 8d c0 fe ff
	ff		 mov	 ecx, DWORD PTR _C$[ebp]
  0512e	c1 e1 1e	 shl	 ecx, 30			; 0000001eH
  05131	0b c1		 or	 eax, ecx
  05133	8b 95 c0 fe ff
	ff		 mov	 edx, DWORD PTR _C$[ebp]
  05139	c1 ea 0d	 shr	 edx, 13			; 0000000dH
  0513c	8b 8d c0 fe ff
	ff		 mov	 ecx, DWORD PTR _C$[ebp]
  05142	c1 e1 13	 shl	 ecx, 19			; 00000013H
  05145	0b d1		 or	 edx, ecx
  05147	33 c2		 xor	 eax, edx
  05149	8b 95 c0 fe ff
	ff		 mov	 edx, DWORD PTR _C$[ebp]
  0514f	c1 ea 16	 shr	 edx, 22			; 00000016H
  05152	8b 8d c0 fe ff
	ff		 mov	 ecx, DWORD PTR _C$[ebp]
  05158	c1 e1 0a	 shl	 ecx, 10			; 0000000aH
  0515b	0b d1		 or	 edx, ecx
  0515d	33 c2		 xor	 eax, edx
  0515f	8b 95 c0 fe ff
	ff		 mov	 edx, DWORD PTR _C$[ebp]
  05165	23 95 b4 fe ff
	ff		 and	 edx, DWORD PTR _D$[ebp]
  0516b	8b 8d c0 fe ff
	ff		 mov	 ecx, DWORD PTR _C$[ebp]
  05171	0b 8d b4 fe ff
	ff		 or	 ecx, DWORD PTR _D$[ebp]
  05177	23 8d a8 fe ff
	ff		 and	 ecx, DWORD PTR _E$[ebp]
  0517d	0b d1		 or	 edx, ecx
  0517f	03 c2		 add	 eax, edx
  05181	89 45 ec	 mov	 DWORD PTR _temp2$[ebp], eax
  05184	8b 85 9c fe ff
	ff		 mov	 eax, DWORD PTR _F$[ebp]
  0518a	03 45 f8	 add	 eax, DWORD PTR _temp1$[ebp]
  0518d	89 85 9c fe ff
	ff		 mov	 DWORD PTR _F$[ebp], eax
  05193	8b 45 f8	 mov	 eax, DWORD PTR _temp1$[ebp]
  05196	03 45 ec	 add	 eax, DWORD PTR _temp2$[ebp]
  05199	89 85 cc fe ff
	ff		 mov	 DWORD PTR _B$[ebp], eax

; 161  :     P( B, C, D, E, F, G, H, A, R(47), 0x106AA070 );

  0519f	b8 04 00 00 00	 mov	 eax, 4
  051a4	6b c8 2d	 imul	 ecx, eax, 45
  051a7	8b 94 0d e4 fe
	ff ff		 mov	 edx, DWORD PTR _W$[ebp+ecx]
  051ae	c1 ea 11	 shr	 edx, 17			; 00000011H
  051b1	b8 04 00 00 00	 mov	 eax, 4
  051b6	6b c8 2d	 imul	 ecx, eax, 45
  051b9	8b 84 0d e4 fe
	ff ff		 mov	 eax, DWORD PTR _W$[ebp+ecx]
  051c0	c1 e0 0f	 shl	 eax, 15			; 0000000fH
  051c3	0b d0		 or	 edx, eax
  051c5	b9 04 00 00 00	 mov	 ecx, 4
  051ca	6b c1 2d	 imul	 eax, ecx, 45
  051cd	8b 8c 05 e4 fe
	ff ff		 mov	 ecx, DWORD PTR _W$[ebp+eax]
  051d4	c1 e9 13	 shr	 ecx, 19			; 00000013H
  051d7	b8 04 00 00 00	 mov	 eax, 4
  051dc	6b c0 2d	 imul	 eax, eax, 45
  051df	8b 84 05 e4 fe
	ff ff		 mov	 eax, DWORD PTR _W$[ebp+eax]
  051e6	c1 e0 0d	 shl	 eax, 13			; 0000000dH
  051e9	0b c8		 or	 ecx, eax
  051eb	33 d1		 xor	 edx, ecx
  051ed	b9 04 00 00 00	 mov	 ecx, 4
  051f2	6b c1 2d	 imul	 eax, ecx, 45
  051f5	8b 8c 05 e4 fe
	ff ff		 mov	 ecx, DWORD PTR _W$[ebp+eax]
  051fc	c1 e9 0a	 shr	 ecx, 10			; 0000000aH
  051ff	33 d1		 xor	 edx, ecx
  05201	b8 04 00 00 00	 mov	 eax, 4
  05206	6b c8 28	 imul	 ecx, eax, 40
  05209	03 94 0d e4 fe
	ff ff		 add	 edx, DWORD PTR _W$[ebp+ecx]
  05210	b8 04 00 00 00	 mov	 eax, 4
  05215	c1 e0 05	 shl	 eax, 5
  05218	8b 8c 05 e4 fe
	ff ff		 mov	 ecx, DWORD PTR _W$[ebp+eax]
  0521f	c1 e9 07	 shr	 ecx, 7
  05222	b8 04 00 00 00	 mov	 eax, 4
  05227	c1 e0 05	 shl	 eax, 5
  0522a	8b 84 05 e4 fe
	ff ff		 mov	 eax, DWORD PTR _W$[ebp+eax]
  05231	c1 e0 19	 shl	 eax, 25			; 00000019H
  05234	0b c8		 or	 ecx, eax
  05236	b8 04 00 00 00	 mov	 eax, 4
  0523b	c1 e0 05	 shl	 eax, 5
  0523e	8b 84 05 e4 fe
	ff ff		 mov	 eax, DWORD PTR _W$[ebp+eax]
  05245	c1 e8 12	 shr	 eax, 18			; 00000012H
  05248	be 04 00 00 00	 mov	 esi, 4
  0524d	c1 e6 05	 shl	 esi, 5
  05250	8b b4 35 e4 fe
	ff ff		 mov	 esi, DWORD PTR _W$[ebp+esi]
  05257	c1 e6 0e	 shl	 esi, 14			; 0000000eH
  0525a	0b c6		 or	 eax, esi
  0525c	33 c8		 xor	 ecx, eax
  0525e	b8 04 00 00 00	 mov	 eax, 4
  05263	c1 e0 05	 shl	 eax, 5
  05266	8b 84 05 e4 fe
	ff ff		 mov	 eax, DWORD PTR _W$[ebp+eax]
  0526d	c1 e8 03	 shr	 eax, 3
  05270	33 c8		 xor	 ecx, eax
  05272	03 d1		 add	 edx, ecx
  05274	b9 04 00 00 00	 mov	 ecx, 4
  05279	6b c1 1f	 imul	 eax, ecx, 31
  0527c	03 94 05 e4 fe
	ff ff		 add	 edx, DWORD PTR _W$[ebp+eax]
  05283	89 95 bc fd ff
	ff		 mov	 DWORD PTR tv3684[ebp], edx
  05289	b9 04 00 00 00	 mov	 ecx, 4
  0528e	6b d1 2f	 imul	 edx, ecx, 47
  05291	8b 85 bc fd ff
	ff		 mov	 eax, DWORD PTR tv3684[ebp]
  05297	89 84 15 e4 fe
	ff ff		 mov	 DWORD PTR _W$[ebp+edx], eax
  0529e	8b 8d 90 fe ff
	ff		 mov	 ecx, DWORD PTR _G$[ebp]
  052a4	33 8d 84 fe ff
	ff		 xor	 ecx, DWORD PTR _H$[ebp]
  052aa	23 8d 9c fe ff
	ff		 and	 ecx, DWORD PTR _F$[ebp]
  052b0	33 8d 84 fe ff
	ff		 xor	 ecx, DWORD PTR _H$[ebp]
  052b6	8b 95 9c fe ff
	ff		 mov	 edx, DWORD PTR _F$[ebp]
  052bc	c1 e2 07	 shl	 edx, 7
  052bf	8b 85 9c fe ff
	ff		 mov	 eax, DWORD PTR _F$[ebp]
  052c5	c1 e8 19	 shr	 eax, 25			; 00000019H
  052c8	0b c2		 or	 eax, edx
  052ca	8b 95 9c fe ff
	ff		 mov	 edx, DWORD PTR _F$[ebp]
  052d0	c1 e2 15	 shl	 edx, 21			; 00000015H
  052d3	8b b5 9c fe ff
	ff		 mov	 esi, DWORD PTR _F$[ebp]
  052d9	c1 ee 0b	 shr	 esi, 11			; 0000000bH
  052dc	0b f2		 or	 esi, edx
  052de	8b 95 9c fe ff
	ff		 mov	 edx, DWORD PTR _F$[ebp]
  052e4	c1 e2 1a	 shl	 edx, 26			; 0000001aH
  052e7	8b bd 9c fe ff
	ff		 mov	 edi, DWORD PTR _F$[ebp]
  052ed	c1 ef 06	 shr	 edi, 6
  052f0	0b fa		 or	 edi, edx
  052f2	33 fe		 xor	 edi, esi
  052f4	33 f8		 xor	 edi, eax
  052f6	03 bd d8 fe ff
	ff		 add	 edi, DWORD PTR _A$[ebp]
  052fc	03 bd bc fd ff
	ff		 add	 edi, DWORD PTR tv3684[ebp]
